

Microchip MPLAB XC8 Assembler V2.46 build 20240104201356 
                                                                                               Wed Oct 30 00:07:35 2024

Microchip MPLAB XC8 C Compiler v2.46 (Free license) build 20240104201356 Og1 
     1                           	processor	18F4620
     2                           	fnconf	rparam,??,?,0
     3                           	pagewidth 120
     4                           	opt	flic
     5                           	psect	idataCOMRAM,global,class=CODE,delta=1,noexec
     6                           	psect	idataBANK0,global,class=CODE,delta=1,noexec
     7                           	psect	smallconst,global,reloc=2,class=SMALLCONST,delta=1,noexec
     8                           	psect	nvCOMRAM,global,class=COMRAM,space=1,delta=1,lowdata,noexec
     9                           	psect	cinit,global,reloc=2,class=CODE,delta=1
    10                           	psect	bssCOMRAM,global,class=COMRAM,space=1,delta=1,lowdata,noexec
    11                           	psect	dataCOMRAM,global,class=COMRAM,space=1,delta=1,lowdata,noexec
    12                           	psect	bssBANK0,global,class=BANK0,space=1,delta=1,lowdata,noexec
    13                           	psect	dataBANK0,global,class=BANK0,space=1,delta=1,lowdata,noexec
    14                           	psect	cstackBANK0,global,class=BANK0,space=1,delta=1,lowdata,noexec
    15                           	psect	cstackCOMRAM,global,class=COMRAM,space=1,delta=1,lowdata,noexec
    16                           	psect	text0,global,reloc=2,class=CODE,delta=1
    17                           	psect	text1,global,reloc=2,class=CODE,delta=1
    18                           	psect	text2,global,reloc=2,class=CODE,delta=1
    19                           	psect	text3,global,reloc=2,class=CODE,delta=1
    20                           	psect	text4,global,reloc=2,class=CODE,delta=1
    21                           	psect	text5,global,reloc=2,class=CODE,delta=1
    22                           	psect	text6,global,reloc=2,class=CODE,delta=1
    23                           	psect	text7,global,reloc=2,class=CODE,delta=1
    24                           	psect	text8,global,reloc=2,class=CODE,delta=1
    25                           	psect	text9,global,reloc=2,class=CODE,delta=1
    26                           	psect	text10,global,reloc=2,class=CODE,delta=1
    27                           	psect	text11,global,reloc=2,class=CODE,delta=1
    28                           	psect	text12,global,reloc=2,class=CODE,delta=1
    29                           	psect	text13,global,reloc=2,class=CODE,delta=1
    30                           	psect	text14,global,reloc=2,class=CODE,delta=1
    31                           	psect	text15,global,reloc=2,class=CODE,delta=1,inline
    32                           	psect	text16,global,reloc=2,class=CODE,delta=1,inline
    33                           	psect	text17,global,reloc=2,class=CODE,delta=1,inline
    34                           	psect	intcode,global,reloc=2,class=CODE,delta=1
    35                           	psect	intcode_body,global,reloc=2,class=CODE,delta=1
    36                           	psect	text19,global,reloc=2,class=CODE,delta=1
    37                           	psect	text20,global,reloc=2,class=CODE,delta=1
    38                           	psect	text21,global,reloc=2,class=CODE,delta=1
    39                           	psect	text22,global,reloc=2,class=CODE,delta=1
    40                           	psect	text23,global,reloc=2,class=CODE,delta=1
    41                           	psect	text24,global,reloc=2,class=CODE,delta=1
    42                           	psect	text25,global,reloc=2,class=CODE,delta=1
    43                           	psect	text26,global,reloc=2,class=CODE,delta=1
    44                           	psect	text27,global,reloc=2,class=CODE,delta=1
    45                           	psect	text28,global,reloc=2,class=CODE,delta=1
    46                           	psect	text29,global,reloc=2,class=CODE,delta=1
    47                           	psect	text30,global,reloc=2,class=CODE,delta=1
    48                           	psect	text31,global,reloc=2,class=CODE,delta=1
    49                           	psect	text32,global,reloc=2,class=CODE,delta=1
    50                           	psect	text33,global,reloc=2,class=CODE,delta=1
    51                           	psect	text34,global,reloc=2,class=CODE,delta=1
    52                           	psect	text35,global,reloc=2,class=CODE,delta=1
    53                           	psect	text36,global,reloc=2,class=CODE,delta=1
    54                           	psect	text37,global,reloc=2,class=CODE,delta=1
    55                           	psect	text38,global,reloc=2,class=CODE,delta=1
    56                           	psect	text39,global,reloc=2,class=CODE,delta=1
    57                           	psect	text40,global,reloc=2,class=CODE,delta=1
    58                           	psect	intsave_regs,global,class=BIGRAM,space=1,delta=1,noexec
    59                           	psect	rparam,global,class=COMRAM,space=1,delta=1,noexec
    60                           	psect	temp,global,ovrld,common,class=COMRAM,space=1,delta=1,lowdata
    61                           	psect	config,global,abs,ovrld,class=CONFIG,space=4,delta=1,noexec
    62   000000                     
    63                           ; Generated 17/10/2023 GMT
    64                           ; 
    65                           ; Copyright © 2023, Microchip Technology Inc. and its subsidiaries ("Microchip")
    66                           ; All rights reserved.
    67                           ; 
    68                           ; This software is developed by Microchip Technology Inc. and its subsidiaries ("Microch
      +                          ip").
    69                           ; 
    70                           ; Redistribution and use in source and binary forms, with or without modification, are
    71                           ; permitted provided that the following conditions are met:
    72                           ; 
    73                           ;     1. Redistributions of source code must retain the above copyright notice, this lis
      +                          t of
    74                           ;        conditions and the following disclaimer.
    75                           ; 
    76                           ;     2. Redistributions in binary form must reproduce the above copyright notice, this 
      +                          list
    77                           ;        of conditions and the following disclaimer in the documentation and/or other
    78                           ;        materials provided with the distribution. Publication is not required when
    79                           ;        this file is used in an embedded application.
    80                           ; 
    81                           ;     3. Microchip's name may not be used to endorse or promote products derived from th
      +                          is
    82                           ;        software without specific prior written permission.
    83                           ; 
    84                           ; THIS SOFTWARE IS PROVIDED BY MICROCHIP "AS IS" AND ANY EXPRESS OR IMPLIED WARRANTIES,
    85                           ; INCLUDING, BUT NOT LIMITED TO, THE IMPLIED WARRANTIES OF MERCHANTABILITY AND FITNESS F
      +                          OR
    86                           ; PURPOSE ARE DISCLAIMED.  IN NO EVENT SHALL MICROCHIP BE LIABLE FOR ANY DIRECT, INDIREC
      +                          T,
    87                           ; INCIDENTAL, SPECIAL, EXEMPLARY, OR CONSEQUENTIAL DAMAGES (INCLUDING BUT NOT LIMITED TO
    88                           ; PROCUREMENT OF SUBSTITUTE GOODS OR SERVICES; LOSS OF USE, DATA OR PROFITS; OR BUSINESS
    89                           ; INTERRUPTION) HOWSOEVER CAUSED AND ON ANY THEORY OF LIABILITY, WHETHER IN CONTRACT, ST
      +                          RICT
    90                           ; LIABILITY, OR TORT (INCLUDING NEGLIGENCE OR OTHERWISE) ARISING IN ANY WAY OUT OF THE U
      +                          SE OF
    91                           ; THIS SOFTWARE, EVEN IF ADVISED OF THE POSSIBILITY OF SUCH DAMAGE.
    92                           ; 
    93                           ; 
    94                           ; Code-generator required, PIC18F4620 Definitions
    95                           ; 
    96                           ; SFR Addresses
    97   000000                     
    98                           	psect	idataCOMRAM
    99   001F68                     __pidataCOMRAM:
   100                           	callstack 0
   101                           
   102                           ;initializer for _lat_register
   103   001F68  89                 	db	137
   104   001F69  0F                 	db	15
   105   001F6A  8A                 	db	138
   106   001F6B  0F                 	db	15
   107   001F6C  8B                 	db	139
   108   001F6D  0F                 	db	15
   109   001F6E  8C                 	db	140
   110   001F6F  0F                 	db	15
   111   001F70  8D                 	db	141
   112   001F71  0F                 	db	15
   113                           
   114                           ;initializer for _RB7_FLAG
   115   001F72  01                 	db	1
   116                           
   117                           ;initializer for _RB6_FLAG
   118   001F73  01                 	db	1
   119                           
   120                           ;initializer for _RB5_FLAG
   121   001F74  01                 	db	1
   122                           
   123                           ;initializer for _RB4_FLAG
   124   001F75  01                 	db	1
   125                           
   126                           ;initializer for _led1
   127   001F76  03                 	db	3
   128                           
   129                           	psect	idataBANK0
   130   001E9C                     __pidataBANK0:
   131                           	callstack 0
   132                           
   133                           ;initializer for _port_register
   134   001E9C  80                 	db	128
   135   001E9D  0F                 	db	15
   136   001E9E  81                 	db	129
   137   001E9F  0F                 	db	15
   138   001EA0  82                 	db	130
   139   001EA1  0F                 	db	15
   140   001EA2  83                 	db	131
   141   001EA3  0F                 	db	15
   142   001EA4  84                 	db	132
   143   001EA5  0F                 	db	15
   144                           
   145                           ;initializer for _tris_register
   146   001EA6  92                 	db	146
   147   001EA7  0F                 	db	15
   148   001EA8  93                 	db	147
   149   001EA9  0F                 	db	15
   150   001EAA  94                 	db	148
   151   001EAB  0F                 	db	15
   152   001EAC  95                 	db	149
   153   001EAD  0F                 	db	15
   154   001EAE  96                 	db	150
   155   001EAF  0F                 	db	15
   156                           
   157                           ;initializer for _lcd_2
   158   001EB0  32                 	db	50
   159   001EB1  3A                 	db	58
   160   001EB2  03                 	db	3
   161   001EB3  0B                 	db	11
   162   001EB4  13                 	db	19
   163   001EB5  1B                 	db	27
   164   001EB6  23                 	db	35
   165   001EB7  2B                 	db	43
   166   001EB8  33                 	db	51
   167   001EB9  3B                 	db	59
   168                           
   169                           ;initializer for _timer_obj
   170   001EBA  90                 	db	low _default_interrupt_handler
   171   001EBB  1F                 	db	high _default_interrupt_handler
   172   001EBC  00                 	db	0
   173   001EBD  07                 	db	7
   174   001EBE  48E5               	dw	18661
   175   001EC0  09                 	db	9
   176                           
   177                           ;initializer for _lcd_1
   178   001EC1  02                 	db	2
   179   001EC2  0A                 	db	10
   180   001EC3  12                 	db	18
   181   001EC4  1A                 	db	26
   182   001EC5  22                 	db	34
   183   001EC6  2A                 	db	42
   184                           
   185                           	psect	smallconst
   186   001000                     __psmallconst:
   187                           	callstack 0
   188   001000  00                 	db	0
   189   001001                     _keybad_val:
   190                           	callstack 0
   191   001001  37                 	db	55
   192   001002  38                 	db	56
   193   001003  39                 	db	57
   194   001004  2F                 	db	47
   195   001005  34                 	db	52
   196   001006  35                 	db	53
   197   001007  36                 	db	54
   198   001008  2A                 	db	42
   199   001009  31                 	db	49
   200   00100A  32                 	db	50
   201   00100B  32                 	db	50
   202   00100C  2D                 	db	45
   203   00100D  23                 	db	35
   204   00100E  30                 	db	48
   205   00100F  3D                 	db	61
   206   001010  2B                 	db	43
   207   001011                     __end_of_keybad_val:
   208                           	callstack 0
   209   000000                     _SSPBUF	set	4041
   210   000000                     _SSPSTATbits	set	4039
   211   000000                     _SSPADD	set	4040
   212   000000                     _SSPCON2bits	set	4037
   213   000000                     _SPBRGH	set	4016
   214   000000                     _SPBRG	set	4015
   215   000000                     _TXREG	set	4013
   216   000000                     _TXSTAbits	set	4012
   217   000000                     _RCREG	set	4014
   218   000000                     _RCSTAbits	set	4011
   219   000000                     _TMR3L	set	4018
   220   000000                     _TMR3H	set	4019
   221   000000                     _T2CONbits	set	4042
   222   000000                     _TMR1L	set	4046
   223   000000                     _TMR1H	set	4047
   224   000000                     _T1CONbits	set	4045
   225   000000                     _TMR0L	set	4054
   226   000000                     _TMR0H	set	4055
   227   000000                     _T0CONbits	set	4053
   228   000000                     _SSPCON1bits	set	4038
   229   000000                     _INTCON2bits	set	4081
   230   000000                     _INTCON3bits	set	4080
   231   000000                     _EECON2	set	4007
   232   000000                     _CCPR2H	set	4028
   233   000000                     _CCPR2L	set	4027
   234   000000                     _CCPR1H	set	4031
   235   000000                     _CCPR1L	set	4030
   236   000000                     _ADCON1bits	set	4033
   237   000000                     _ADRESL	set	4035
   238   000000                     _ADRESH	set	4036
   239   000000                     _INTCONbits	set	4082
   240   000000                     _TRISD	set	3989
   241   000000                     _TRISC	set	3988
   242   000000                     _TRISB	set	3987
   243   000000                     _TRISE	set	3990
   244   001011                     STR_1:
   245   001011  25                 	db	37
   246   001012  69                 	db	105	;'i'
   247   001013  00                 	db	0
   248   001014  00                 	db	0	; dummy byte at the end
   249   000000                     
   250                           	psect	nvCOMRAM
   251   00006D                     __pnvCOMRAM:
   252                           	callstack 0
   253   00006D                     _ret:
   254                           	callstack 0
   255   00006D                     	ds	1
   256   000000                     _TRISCbits	set	3988
   257   000000                     _PORTBbits	set	3969
   258   000000                     _PIE1bits	set	3997
   259   000000                     _ADCON2bits	set	4032
   260   000000                     _ADCON0bits	set	4034
   261   000000                     _PORTE	set	3972
   262   000000                     _PORTD	set	3971
   263   000000                     _PORTC	set	3970
   264   000000                     _PORTB	set	3969
   265   000000                     _PORTA	set	3968
   266   000000                     _LATA	set	3977
   267   000000                     _TRISA	set	3986
   268   000000                     _PIE2bits	set	4000
   269   000000                     _CCP2CONbits	set	4026
   270   000000                     _CCP1CONbits	set	4029
   271   000000                     _PIR1bits	set	3998
   272   000000                     _EECON1bits	set	4006
   273   000000                     _EEDATA	set	4008
   274   000000                     _EEADR	set	4009
   275   000000                     _EEADRH	set	4010
   276   000000                     _T3CONbits	set	4017
   277   000000                     _PIR2bits	set	4001
   278   000000                     _LATE	set	3981
   279   000000                     _LATD	set	3980
   280   000000                     _LATC	set	3979
   281   000000                     _LATB	set	3978
   282   000000                     _TMR2	set	4044
   283   000000                     _BAUDCONbits	set	4024
   284                           
   285                           ; #config settings
   286                           
   287                           	psect	cinit
   288   001C60                     __pcinit:
   289                           	callstack 0
   290   001C60                     start_initialization:
   291                           	callstack 0
   292   001C60                     __initialization:
   293                           	callstack 0
   294                           
   295                           ; Initialize objects allocated to BANK0 (43 bytes)
   296                           ; load TBLPTR registers with __pidataBANK0
   297   001C60  0E9C               	movlw	low __pidataBANK0
   298   001C62  6EF6               	movwf	tblptrl,c
   299   001C64  0E1E               	movlw	high __pidataBANK0
   300   001C66  6EF7               	movwf	tblptrh,c
   301   001C68  0E00               	movlw	low (__pidataBANK0 shr (0+16))
   302   001C6A  6EF8               	movwf	tblptru,c
   303   001C6C  EE00  F080         	lfsr	0,__pdataBANK0
   304   001C70  EE10 F02B          	lfsr	1,43
   305   001C74                     copy_data0:
   306   001C74  0009               	tblrd		*+
   307   001C76  CFF5 FFEE          	movff	tablat,postinc0
   308   001C7A  50E5               	movf	postdec1,w,c
   309   001C7C  50E1               	movf	fsr1l,w,c
   310   001C7E  E1FA               	bnz	copy_data0
   311                           
   312                           ; Initialize objects allocated to COMRAM (15 bytes)
   313                           ; load TBLPTR registers with __pidataCOMRAM
   314   001C80  0E68               	movlw	low __pidataCOMRAM
   315   001C82  6EF6               	movwf	tblptrl,c
   316   001C84  0E1F               	movlw	high __pidataCOMRAM
   317   001C86  6EF7               	movwf	tblptrh,c
   318   001C88  0E00               	movlw	low (__pidataCOMRAM shr (0+16))
   319   001C8A  6EF8               	movwf	tblptru,c
   320   001C8C  EE00  F05E         	lfsr	0,__pdataCOMRAM
   321   001C90  EE10 F00F          	lfsr	1,15
   322   001C94                     copy_data1:
   323   001C94  0009               	tblrd		*+
   324   001C96  CFF5 FFEE          	movff	tablat,postinc0
   325   001C9A  50E5               	movf	postdec1,w,c
   326   001C9C  50E1               	movf	fsr1l,w,c
   327   001C9E  E1FA               	bnz	copy_data1
   328                           
   329                           ; Clear objects allocated to BANK0 (6 bytes)
   330   001CA0  0100               	movlb	0
   331   001CA2  6BBD               	clrf	(__pbssBANK0+5)& (0+255),b
   332   001CA4  6BBC               	clrf	(__pbssBANK0+4)& (0+255),b
   333   001CA6  6BBB               	clrf	(__pbssBANK0+3)& (0+255),b
   334   001CA8  6BBA               	clrf	(__pbssBANK0+2)& (0+255),b
   335   001CAA  6BB9               	clrf	(__pbssBANK0+1)& (0+255),b
   336   001CAC  6BB8               	clrf	__pbssBANK0& (0+255),b
   337                           
   338                           ; Clear objects allocated to COMRAM (69 bytes)
   339   001CAE  EE00  F001         	lfsr	0,__pbssCOMRAM
   340   001CB2  0E45               	movlw	69
   341   001CB4                     clear_0:
   342   001CB4  6AEE               	clrf	postinc0,c
   343   001CB6  06E8               	decf	wreg,f,c
   344   001CB8  E1FD               	bnz	clear_0
   345   001CBA                     end_of_initialization:
   346                           	callstack 0
   347   001CBA                     __end_of__initialization:
   348                           	callstack 0
   349   001CBA  906E               	bcf	int$flags,0,c	;clear compiler interrupt flag (level 1)
   350   001CBC  926E               	bcf	int$flags,1,c	;clear compiler interrupt flag (level 2)
   351   001CBE  0100               	movlb	0
   352   001CC0  EF64  F00F         	goto	_main	;jump to C main() function
   353                           
   354                           	psect	bssCOMRAM
   355   000001                     __pbssCOMRAM:
   356                           	callstack 0
   357   000001                     	ds	2
   358   000003                     _I2C_InterruptHandler:
   359                           	callstack 0
   360   000003                     	ds	2
   361   000005                     _I2C_Report_Write_Collision_InterruptHandler:
   362                           	callstack 0
   363   000005                     	ds	2
   364   000007                     _EUSART_OverRunError_InterruptHandler:
   365                           	callstack 0
   366   000007                     	ds	2
   367   000009                     _EUSART_FramingError_InterruptHandler:
   368                           	callstack 0
   369   000009                     	ds	2
   370   00000B                     _EUSART_RX_InterruptHandler:
   371                           	callstack 0
   372   00000B                     	ds	2
   373   00000D                     _EUSART_TX_InterruptHandler:
   374                           	callstack 0
   375   00000D                     	ds	2
   376   00000F                     _timer3_preload:
   377                           	callstack 0
   378   00000F                     	ds	2
   379   000011                     _TIMER3_InterruptHandler:
   380                           	callstack 0
   381   000011                     	ds	2
   382   000013                     _TIMER2_InterruptHandler:
   383                           	callstack 0
   384   000013                     	ds	2
   385   000015                     _timer1_preload:
   386                           	callstack 0
   387   000015                     	ds	2
   388   000017                     _TIMER1_InterruptHandler:
   389                           	callstack 0
   390   000017                     	ds	2
   391   000019                     _timer0_preload:
   392                           	callstack 0
   393   000019                     	ds	2
   394   00001B                     _TIMER0_InterruptHandler:
   395                           	callstack 0
   396   00001B                     	ds	2
   397   00001D                     _SPI_DefaultInterruptHandler:
   398                           	callstack 0
   399   00001D                     	ds	2
   400   00001F                     _RB7_InterruptHandler_LOW:
   401                           	callstack 0
   402   00001F                     	ds	2
   403   000021                     _RB7_InterruptHandler_HIGH:
   404                           	callstack 0
   405   000021                     	ds	2
   406   000023                     _RB6_InterruptHandler_LOW:
   407                           	callstack 0
   408   000023                     	ds	2
   409   000025                     _RB6_InterruptHandler_HIGH:
   410                           	callstack 0
   411   000025                     	ds	2
   412   000027                     _RB5_InterruptHandler_LOW:
   413                           	callstack 0
   414   000027                     	ds	2
   415   000029                     _RB5_InterruptHandler_HIGH:
   416                           	callstack 0
   417   000029                     	ds	2
   418   00002B                     _RB4_InterruptHandler_LOW:
   419                           	callstack 0
   420   00002B                     	ds	2
   421   00002D                     _RB4_InterruptHandler_HIGH:
   422                           	callstack 0
   423   00002D                     	ds	2
   424   00002F                     _INT2_InterruptHandler:
   425                           	callstack 0
   426   00002F                     	ds	2
   427   000031                     _INT1_InterruptHandler:
   428                           	callstack 0
   429   000031                     	ds	2
   430   000033                     _INT0_InterruptHandler:
   431                           	callstack 0
   432   000033                     	ds	2
   433   000035                     CCP_Compare_Mode_Set_Value@F3120:
   434                           	callstack 0
   435   000035                     	ds	2
   436   000037                     _CCP2_InterruptHandler:
   437                           	callstack 0
   438   000037                     	ds	2
   439   000039                     _CCP1_InterruptHandler:
   440                           	callstack 0
   441   000039                     	ds	2
   442   00003B                     _ADC_InterruptHandler:
   443                           	callstack 0
   444   00003B                     	ds	2
   445   00003D                     _green_counter:
   446                           	callstack 0
   447   00003D                     	ds	1
   448   00003E                     _timer2_preload:
   449                           	callstack 0
   450   00003E                     	ds	1
   451   00003F                     relay_turn_off@F3066:
   452                           	callstack 0
   453   00003F                     	ds	1
   454   000040                     relay_turn_on@F3061:
   455                           	callstack 0
   456   000040                     	ds	1
   457   000041                     relay_intialization@F3056:
   458                           	callstack 0
   459   000041                     	ds	1
   460   000042                     led_toggle@F3077:
   461                           	callstack 0
   462   000042                     	ds	1
   463   000043                     led_turn_off@F3072:
   464                           	callstack 0
   465   000043                     	ds	1
   466   000044                     led_turn_on@F3067:
   467                           	callstack 0
   468   000044                     	ds	1
   469   000045                     led_intialization@F3062:
   470                           	callstack 0
   471   000045                     	ds	1
   472                           
   473                           	psect	dataCOMRAM
   474   00005E                     __pdataCOMRAM:
   475                           	callstack 0
   476   00005E                     _lat_register:
   477                           	callstack 0
   478   00005E                     	ds	10
   479   000068                     _RB7_FLAG:
   480                           	callstack 0
   481   000068                     	ds	1
   482   000069                     _RB6_FLAG:
   483                           	callstack 0
   484   000069                     	ds	1
   485   00006A                     _RB5_FLAG:
   486                           	callstack 0
   487   00006A                     	ds	1
   488   00006B                     _RB4_FLAG:
   489                           	callstack 0
   490   00006B                     	ds	1
   491   00006C                     _led1:
   492                           	callstack 0
   493   00006C                     	ds	1
   494                           
   495                           	psect	bssBANK0
   496   0000B8                     __pbssBANK0:
   497                           	callstack 0
   498   0000B8                     	ds	6
   499                           
   500                           	psect	dataBANK0
   501   000080                     __pdataBANK0:
   502                           	callstack 0
   503   000080                     _port_register:
   504                           	callstack 0
   505   000080                     	ds	10
   506   00008A                     _tris_register:
   507                           	callstack 0
   508   00008A                     	ds	10
   509   000094                     _lcd_2:
   510                           	callstack 0
   511   000094                     	ds	10
   512   00009E                     _timer_obj:
   513                           	callstack 0
   514   00009E                     	ds	7
   515   0000A5                     _lcd_1:
   516                           	callstack 0
   517   0000A5                     	ds	6
   518                           
   519                           	psect	cstackBANK0
   520   0000AB                     __pcstackBANK0:
   521                           	callstack 0
   522   0000AB                     gpio_pin_write_logic@ret:
   523                           	callstack 0
   524                           
   525                           ; 1 bytes @ 0x0
   526   0000AB                     	ds	1
   527   0000AC                     lcd_send_4_bits@lcd:
   528                           	callstack 0
   529   0000AC                     lcd_send_4_bits_enable_signal@lcd:
   530                           	callstack 0
   531   0000AC                     lcd_send_8_bits_enable_signal@lcd:
   532                           	callstack 0
   533   0000AC                     gpio_pin_intialize@pin_config:
   534                           	callstack 0
   535                           
   536                           ; 1 bytes @ 0x1
   537   0000AC                     	ds	1
   538   0000AD                     ??_gpio_pin_intialize:
   539   0000AD                     lcd_send_4_bits@_data_command:
   540                           	callstack 0
   541   0000AD                     lcd_send_4_bits_enable_signal@ret:
   542                           	callstack 0
   543   0000AD                     lcd_send_8_bits_enable_signal@ret:
   544                           	callstack 0
   545                           
   546                           ; 1 bytes @ 0x2
   547   0000AD                     	ds	1
   548   0000AE                     lcd_8bit_send_comand@lcd:
   549                           	callstack 0
   550   0000AE                     lcd_send_4_bits@ret:
   551                           	callstack 0
   552   0000AE                     gpio_pin_intialize@ret:
   553                           	callstack 0
   554                           
   555                           ; 1 bytes @ 0x3
   556   0000AE                     	ds	1
   557   0000AF                     lcd_4bit_send_comand@lcd:
   558                           	callstack 0
   559   0000AF                     lcd_8bit_send_comand@command:
   560                           	callstack 0
   561   0000AF                     led_intialization@LED:
   562                           	callstack 0
   563                           
   564                           ; 1 bytes @ 0x4
   565   0000AF                     	ds	1
   566   0000B0                     ??_lcd_8bit_send_comand:
   567   0000B0                     ??_led_intialization:
   568   0000B0                     lcd_4bit_send_comand@command:
   569                           	callstack 0
   570                           
   571                           ; 1 bytes @ 0x5
   572   0000B0                     	ds	1
   573   0000B1                     lcd_4bit_send_comand@ret:
   574                           	callstack 0
   575   0000B1                     led_intialization@ret:
   576                           	callstack 0
   577                           
   578                           ; 1 bytes @ 0x6
   579   0000B1                     	ds	1
   580   0000B2                     lcd_4bit_intialize@lcd:
   581                           	callstack 0
   582   0000B2                     lcd_8bit_send_comand@ret:
   583                           	callstack 0
   584   0000B2                     led_intialization@pin_obj:
   585                           	callstack 0
   586                           
   587                           ; 1 bytes @ 0x7
   588   0000B2                     	ds	1
   589   0000B3                     ??_lcd_4bit_intialize:
   590   0000B3                     lcd_8bit_send_comand@l_pin_counter:
   591                           	callstack 0
   592                           
   593                           ; 1 bytes @ 0x8
   594   0000B3                     	ds	1
   595   0000B4                     lcd_4bit_intialize@l_data_pin_counter:
   596                           	callstack 0
   597   0000B4                     lcd_8bit_intialize@lcd:
   598                           	callstack 0
   599                           
   600                           ; 1 bytes @ 0x9
   601   0000B4                     	ds	1
   602   0000B5                     ??_lcd_8bit_intialize:
   603   0000B5                     lcd_4bit_intialize@ret:
   604                           	callstack 0
   605                           
   606                           ; 1 bytes @ 0xA
   607   0000B5                     	ds	1
   608   0000B6                     lcd_8bit_intialize@l_data_pin_counter:
   609                           	callstack 0
   610                           
   611                           ; 1 bytes @ 0xB
   612   0000B6                     	ds	1
   613   0000B7                     lcd_8bit_intialize@ret:
   614                           	callstack 0
   615                           
   616                           ; 1 bytes @ 0xC
   617   0000B7                     	ds	1
   618                           
   619                           	psect	cstackCOMRAM
   620   000046                     __pcstackCOMRAM:
   621                           	callstack 0
   622   000046                     RB4_ISR@RB4_source:
   623                           	callstack 0
   624   000046                     RB5_ISR@RB5_source:
   625                           	callstack 0
   626   000046                     RB6_ISR@RB6_source:
   627                           	callstack 0
   628   000046                     RB7_ISR@RB7_source:
   629                           	callstack 0
   630   000046                     i2gpio_pin_write_logic@pin_config:
   631                           	callstack 0
   632                           
   633                           ; 1 bytes @ 0x0
   634   000046                     	ds	1
   635   000047                     i2gpio_pin_write_logic@logic:
   636                           	callstack 0
   637                           
   638                           ; 1 bytes @ 0x1
   639   000047                     	ds	1
   640   000048                     ??i2_gpio_pin_write_logic:
   641                           
   642                           ; 1 bytes @ 0x2
   643   000048                     	ds	5
   644   00004D                     i2gpio_pin_write_logic@ret:
   645                           	callstack 0
   646                           
   647                           ; 1 bytes @ 0x7
   648   00004D                     	ds	1
   649   00004E                     led_turn_on@LED:
   650                           	callstack 0
   651                           
   652                           ; 1 bytes @ 0x8
   653   00004E                     	ds	1
   654   00004F                     ??_led_turn_on:
   655                           
   656                           ; 1 bytes @ 0x9
   657   00004F                     	ds	1
   658   000050                     led_turn_on@pin_obj:
   659                           	callstack 0
   660                           
   661                           ; 1 bytes @ 0xA
   662   000050                     	ds	1
   663   000051                     ??_InterruptMangerHigh:
   664   000051                     
   665                           ; 1 bytes @ 0xB
   666   000051                     	ds	6
   667   000057                     gpio_pin_direction_intialize@pin_config:
   668                           	callstack 0
   669   000057                     gpio_pin_write_logic@pin_config:
   670                           	callstack 0
   671   000057                     TIMER0_Prescaler_config@_timer:
   672                           	callstack 0
   673   000057                     TIMER0_MODE_Select@_timer:
   674                           	callstack 0
   675   000057                     TIMER0_REGISTSER_SIZE_config@_timer:
   676                           	callstack 0
   677                           
   678                           ; 1 bytes @ 0x11
   679   000057                     	ds	1
   680   000058                     ??_gpio_pin_direction_intialize:
   681   000058                     ??_TIMER0_Prescaler_config:
   682   000058                     gpio_pin_write_logic@logic:
   683                           	callstack 0
   684                           
   685                           ; 1 bytes @ 0x12
   686   000058                     	ds	1
   687   000059                     ??_gpio_pin_write_logic:
   688   000059                     TIMER0_Init@_timer:
   689                           	callstack 0
   690                           
   691                           ; 1 bytes @ 0x13
   692   000059                     	ds	1
   693   00005A                     ??_TIMER0_Init:
   694                           
   695                           ; 1 bytes @ 0x14
   696   00005A                     	ds	2
   697   00005C                     TIMER0_Init@ret:
   698                           	callstack 0
   699                           
   700                           ; 1 bytes @ 0x16
   701   00005C                     	ds	1
   702   00005D                     gpio_pin_direction_intialize@ret:
   703                           	callstack 0
   704                           
   705                           ; 1 bytes @ 0x17
   706   00005D                     	ds	1
   707   00005E                     
   708                           ; 1 bytes @ 0x18
   709 ;;
   710 ;;Main: autosize = 0, tempsize = 0, incstack = 0, save=0
   711 ;;
   712 ;; *************** function _main *****************
   713 ;; Defined at:
   714 ;;		line 31 in file "application.c"
   715 ;; Parameters:    Size  Location     Type
   716 ;;		None
   717 ;; Auto vars:     Size  Location     Type
   718 ;;		None
   719 ;; Return value:  Size  Location     Type
   720 ;;                  2  1521[None  ] int 
   721 ;; Registers used:
   722 ;;		wreg, fsr2l, fsr2h, status,2, status,0, prodl, prodh, cstack
   723 ;; Tracked objects:
   724 ;;		On entry : 0/0
   725 ;;		On exit  : 0/0
   726 ;;		Unchanged: 0/0
   727 ;; Data sizes:     COMRAM   BANK0   BANK1   BANK2   BANK3   BANK4   BANK5   BANK6   BANK7   BANK8   BANK9  BANK10  BANK1
      +1  BANK12  BANK13  BANK14  BANK15
   728 ;;      Params:         0       0       0       0       0       0       0       0       0       0       0       0       
      +0       0       0       0       0
   729 ;;      Locals:         0       0       0       0       0       0       0       0       0       0       0       0       
      +0       0       0       0       0
   730 ;;      Temps:          0       0       0       0       0       0       0       0       0       0       0       0       
      +0       0       0       0       0
   731 ;;      Totals:         0       0       0       0       0       0       0       0       0       0       0       0       
      +0       0       0       0       0
   732 ;;Total ram usage:        0 bytes
   733 ;; Hardware stack levels required when called: 11
   734 ;; This function calls:
   735 ;;		_TIMER0_Init
   736 ;;		_intialization_fun
   737 ;;		_led_intialization
   738 ;; This function is called by:
   739 ;;		Startup code after reset
   740 ;; This function uses a non-reentrant model
   741 ;;
   742                           
   743                           	psect	text0
   744   001EC8                     __ptext0:
   745                           	callstack 0
   746   001EC8                     _main:
   747                           	callstack 20
   748   001EC8                     
   749                           ;application.c: 32:     intialization_fun();
   750   001EC8  ECD2  F00F         	call	_intialization_fun	;wreg free
   751   001ECC                     
   752                           ;application.c: 33:     ret = TIMER0_Init(&timer_obj);
   753   001ECC  0E9E               	movlw	low _timer_obj
   754   001ECE  6E59               	movwf	TIMER0_Init@_timer^0,c
   755   001ED0  ECCB  F00C         	call	_TIMER0_Init	;wreg free
   756   001ED4  6E6D               	movwf	_ret^0,c
   757   001ED6                     
   758                           ;application.c: 34:     ret = led_intialization(&led1);
   759   001ED6  0E6C               	movlw	low _led1
   760   001ED8  0100               	movlb	0	; () banked
   761   001EDA  6FAF               	movwf	led_intialization@LED& (0+255),b
   762   001EDC  EC8D  F00D         	call	_led_intialization	;wreg free
   763   001EE0  6E6D               	movwf	_ret^0,c
   764   001EE2                     l1522:
   765   001EE2  EF71  F00F         	goto	l1522
   766   001EE6  EF07  F000         	goto	start
   767   001EEA                     __end_of_main:
   768                           	callstack 0
   769                           
   770 ;; *************** function _led_intialization *****************
   771 ;; Defined at:
   772 ;;		line 10 in file "ECU_layer/LED/ecu_led.c"
   773 ;; Parameters:    Size  Location     Type
   774 ;;  LED             1    4[BANK0 ] PTR const struct .
   775 ;;		 -> led1(1), 
   776 ;; Auto vars:     Size  Location     Type
   777 ;;  pin_obj         1    7[BANK0 ] struct .
   778 ;;  ret             1    6[BANK0 ] unsigned char 
   779 ;; Return value:  Size  Location     Type
   780 ;;                  1    wreg      unsigned char 
   781 ;; Registers used:
   782 ;;		wreg, fsr2l, fsr2h, status,2, status,0, prodl, prodh, cstack
   783 ;; Tracked objects:
   784 ;;		On entry : 0/0
   785 ;;		On exit  : 0/0
   786 ;;		Unchanged: 0/0
   787 ;; Data sizes:     COMRAM   BANK0   BANK1   BANK2   BANK3   BANK4   BANK5   BANK6   BANK7   BANK8   BANK9  BANK10  BANK1
      +1  BANK12  BANK13  BANK14  BANK15
   788 ;;      Params:         0       1       0       0       0       0       0       0       0       0       0       0       
      +0       0       0       0       0
   789 ;;      Locals:         0       2       0       0       0       0       0       0       0       0       0       0       
      +0       0       0       0       0
   790 ;;      Temps:          0       1       0       0       0       0       0       0       0       0       0       0       
      +0       0       0       0       0
   791 ;;      Totals:         0       4       0       0       0       0       0       0       0       0       0       0       
      +0       0       0       0       0
   792 ;;Total ram usage:        4 bytes
   793 ;; Hardware stack levels used: 1
   794 ;; Hardware stack levels required when called: 7
   795 ;; This function calls:
   796 ;;		_gpio_pin_intialize
   797 ;; This function is called by:
   798 ;;		_main
   799 ;; This function uses a non-reentrant model
   800 ;;
   801                           
   802                           	psect	text1
   803   001B1A                     __ptext1:
   804                           	callstack 0
   805   001B1A                     _led_intialization:
   806                           	callstack 23
   807   001B1A                     
   808                           ;ECU_layer/LED/ecu_led.c: 13:      if(((void*)0)== LED){
   809   001B1A  0100               	movlb	0	; () banked
   810   001B1C  51AF               	movf	led_intialization@LED& (0+255),w,b
   811   001B1E  A4D8               	btfss	status,2,c
   812   001B20  EF94  F00D         	goto	u5461
   813   001B24  EF96  F00D         	goto	u5460
   814   001B28                     u5461:
   815   001B28  EF9A  F00D         	goto	l279
   816   001B2C                     u5460:
   817   001B2C                     
   818                           ; BSR set to: 0
   819                           ;ECU_layer/LED/ecu_led.c: 14:          ret= (Std_ReturnType)0x00;
   820   001B2C  0E00               	movlw	0
   821   001B2E  6FB1               	movwf	led_intialization@ret& (0+255),b
   822                           
   823                           ;ECU_layer/LED/ecu_led.c: 15:      }
   824   001B30  EFC5  F00D         	goto	l6351
   825   001B34                     l279:
   826                           
   827                           ; BSR set to: 0
   828                           ;ECU_layer/LED/ecu_led.c: 17:          pin_config_t pin_obj ={
   829   001B34  C045  F0B2         	movff	led_intialization@F3062,led_intialization@pin_obj
   830   001B38                     
   831                           ; BSR set to: 0
   832   001B38  51AF               	movf	led_intialization@LED& (0+255),w,b
   833   001B3A  6ED9               	movwf	fsr2l,c
   834   001B3C  6ADA               	clrf	fsr2h,c
   835   001B3E  50DF               	movf	223,w,c
   836   001B40  0B0F               	andlw	15
   837   001B42  6FB0               	movwf	??_led_intialization& (0+255),b
   838   001B44  51B2               	movf	led_intialization@pin_obj& (0+255),w,b
   839   001B46  19B0               	xorwf	??_led_intialization& (0+255),w,b
   840   001B48  0BF8               	andlw	-8
   841   001B4A  19B0               	xorwf	??_led_intialization& (0+255),w,b
   842   001B4C  6FB2               	movwf	led_intialization@pin_obj& (0+255),b
   843   001B4E  51AF               	movf	led_intialization@LED& (0+255),w,b
   844   001B50  6ED9               	movwf	fsr2l,c
   845   001B52  6ADA               	clrf	fsr2h,c
   846   001B54  38DF               	swapf	223,w,c
   847   001B56  0B07               	andlw	7
   848   001B58  6FB0               	movwf	??_led_intialization& (0+255),b
   849   001B5A  47B0               	rlncf	??_led_intialization& (0+255),f,b
   850   001B5C  47B0               	rlncf	??_led_intialization& (0+255),f,b
   851   001B5E  47B0               	rlncf	??_led_intialization& (0+255),f,b
   852   001B60  51B2               	movf	led_intialization@pin_obj& (0+255),w,b
   853   001B62  19B0               	xorwf	??_led_intialization& (0+255),w,b
   854   001B64  0BC7               	andlw	-57
   855   001B66  19B0               	xorwf	??_led_intialization& (0+255),w,b
   856   001B68  6FB2               	movwf	led_intialization@pin_obj& (0+255),b
   857   001B6A                     
   858                           ; BSR set to: 0
   859   001B6A  9DB2               	bcf	led_intialization@pin_obj& (0+255),6,b
   860   001B6C                     
   861                           ; BSR set to: 0
   862   001B6C  51AF               	movf	led_intialization@LED& (0+255),w,b
   863   001B6E  6ED9               	movwf	fsr2l,c
   864   001B70  6ADA               	clrf	fsr2h,c
   865   001B72  AEDF               	btfss	indf2,7,c
   866   001B74  D002               	bra	u5475
   867   001B76  8FB2               	bsf	led_intialization@pin_obj& (0+255),7,b
   868   001B78  D002               	bra	u5477
   869   001B7A                     u5475:
   870   001B7A  0100               	movlb	0	; () banked
   871   001B7C  9FB2               	bcf	led_intialization@pin_obj& (0+255),7,b
   872   001B7E                     u5477:
   873   001B7E                     
   874                           ; BSR set to: 0
   875                           ;ECU_layer/LED/ecu_led.c: 23:         ret= gpio_pin_intialize(&pin_obj);
   876   001B7E  0EB2               	movlw	low led_intialization@pin_obj
   877   001B80  6FAC               	movwf	gpio_pin_intialize@pin_config& (0+255),b
   878   001B82  EC62  F00E         	call	_gpio_pin_intialize	;wreg free
   879   001B86  0100               	movlb	0	; () banked
   880   001B88  6FB1               	movwf	led_intialization@ret& (0+255),b
   881   001B8A                     l6351:
   882                           
   883                           ; BSR set to: 0
   884                           ;ECU_layer/LED/ecu_led.c: 26:      return(ret);
   885   001B8A  51B1               	movf	led_intialization@ret& (0+255),w,b
   886   001B8C                     
   887                           ; BSR set to: 0
   888   001B8C  0012               	return		;funcret
   889   001B8E                     __end_of_led_intialization:
   890                           	callstack 0
   891                           
   892 ;; *************** function _intialization_fun *****************
   893 ;; Defined at:
   894 ;;		line 46 in file "application.c"
   895 ;; Parameters:    Size  Location     Type
   896 ;;		None
   897 ;; Auto vars:     Size  Location     Type
   898 ;;  ret             1    0        unsigned char 
   899 ;; Return value:  Size  Location     Type
   900 ;;                  1    wreg      void 
   901 ;; Registers used:
   902 ;;		wreg, fsr2l, fsr2h, status,2, status,0, prodl, prodh, cstack
   903 ;; Tracked objects:
   904 ;;		On entry : 0/0
   905 ;;		On exit  : 0/0
   906 ;;		Unchanged: 0/0
   907 ;; Data sizes:     COMRAM   BANK0   BANK1   BANK2   BANK3   BANK4   BANK5   BANK6   BANK7   BANK8   BANK9  BANK10  BANK1
      +1  BANK12  BANK13  BANK14  BANK15
   908 ;;      Params:         0       0       0       0       0       0       0       0       0       0       0       0       
      +0       0       0       0       0
   909 ;;      Locals:         0       0       0       0       0       0       0       0       0       0       0       0       
      +0       0       0       0       0
   910 ;;      Temps:          0       0       0       0       0       0       0       0       0       0       0       0       
      +0       0       0       0       0
   911 ;;      Totals:         0       0       0       0       0       0       0       0       0       0       0       0       
      +0       0       0       0       0
   912 ;;Total ram usage:        0 bytes
   913 ;; Hardware stack levels used: 1
   914 ;; Hardware stack levels required when called: 10
   915 ;; This function calls:
   916 ;;		_ecu_layer_intialize
   917 ;; This function is called by:
   918 ;;		_main
   919 ;; This function uses a non-reentrant model
   920 ;;
   921                           
   922                           	psect	text2
   923   001FA4                     __ptext2:
   924                           	callstack 0
   925   001FA4                     _intialization_fun:
   926                           	callstack 20
   927   001FA4                     
   928                           ;application.c: 48:     ecu_layer_intialize();
   929   001FA4  ECA9  F00F         	call	_ecu_layer_intialize	;wreg free
   930   001FA8  0012               	return		;funcret
   931   001FAA                     __end_of_intialization_fun:
   932                           	callstack 0
   933                           
   934 ;; *************** function _ecu_layer_intialize *****************
   935 ;; Defined at:
   936 ;;		line 83 in file "ECU_layer/ecu_inti.c"
   937 ;; Parameters:    Size  Location     Type
   938 ;;		None
   939 ;; Auto vars:     Size  Location     Type
   940 ;;  ret             1    0        unsigned char 
   941 ;; Return value:  Size  Location     Type
   942 ;;                  1    wreg      void 
   943 ;; Registers used:
   944 ;;		wreg, fsr2l, fsr2h, status,2, status,0, prodl, prodh, cstack
   945 ;; Tracked objects:
   946 ;;		On entry : 0/0
   947 ;;		On exit  : 0/0
   948 ;;		Unchanged: 0/0
   949 ;; Data sizes:     COMRAM   BANK0   BANK1   BANK2   BANK3   BANK4   BANK5   BANK6   BANK7   BANK8   BANK9  BANK10  BANK1
      +1  BANK12  BANK13  BANK14  BANK15
   950 ;;      Params:         0       0       0       0       0       0       0       0       0       0       0       0       
      +0       0       0       0       0
   951 ;;      Locals:         0       0       0       0       0       0       0       0       0       0       0       0       
      +0       0       0       0       0
   952 ;;      Temps:          0       0       0       0       0       0       0       0       0       0       0       0       
      +0       0       0       0       0
   953 ;;      Totals:         0       0       0       0       0       0       0       0       0       0       0       0       
      +0       0       0       0       0
   954 ;;Total ram usage:        0 bytes
   955 ;; Hardware stack levels used: 1
   956 ;; Hardware stack levels required when called: 9
   957 ;; This function calls:
   958 ;;		_lcd_4bit_intialize
   959 ;;		_lcd_8bit_intialize
   960 ;; This function is called by:
   961 ;;		_intialization_fun
   962 ;; This function uses a non-reentrant model
   963 ;;
   964                           
   965                           	psect	text3
   966   001F52                     __ptext3:
   967                           	callstack 0
   968   001F52                     _ecu_layer_intialize:
   969                           	callstack 20
   970   001F52  0EA5               	movlw	low _lcd_1
   971   001F54  0100               	movlb	0	; () banked
   972   001F56  6FB2               	movwf	lcd_4bit_intialize@lcd& (0+255),b
   973   001F58  EC46  F00C         	call	_lcd_4bit_intialize	;wreg free
   974   001F5C  0E94               	movlw	low _lcd_2
   975   001F5E  0100               	movlb	0	; () banked
   976   001F60  6FB4               	movwf	lcd_8bit_intialize@lcd& (0+255),b
   977   001F62  ECC1  F00B         	call	_lcd_8bit_intialize	;wreg free
   978   001F66  0012               	return		;funcret
   979   001F68                     __end_of_ecu_layer_intialize:
   980                           	callstack 0
   981                           
   982 ;; *************** function _lcd_8bit_intialize *****************
   983 ;; Defined at:
   984 ;;		line 132 in file "ECU_layer/Chr_LCD/ecu_chr_lcd.c"
   985 ;; Parameters:    Size  Location     Type
   986 ;;  lcd             1    9[BANK0 ] PTR const struct .
   987 ;;		 -> lcd_2(10), 
   988 ;; Auto vars:     Size  Location     Type
   989 ;;  ret             1   12[BANK0 ] unsigned char 
   990 ;;  l_data_pin_c    1   11[BANK0 ] unsigned char 
   991 ;; Return value:  Size  Location     Type
   992 ;;                  1    wreg      unsigned char 
   993 ;; Registers used:
   994 ;;		wreg, fsr2l, fsr2h, status,2, status,0, prodl, prodh, cstack
   995 ;; Tracked objects:
   996 ;;		On entry : 0/0
   997 ;;		On exit  : 0/0
   998 ;;		Unchanged: 0/0
   999 ;; Data sizes:     COMRAM   BANK0   BANK1   BANK2   BANK3   BANK4   BANK5   BANK6   BANK7   BANK8   BANK9  BANK10  BANK1
      +1  BANK12  BANK13  BANK14  BANK15
  1000 ;;      Params:         0       1       0       0       0       0       0       0       0       0       0       0       
      +0       0       0       0       0
  1001 ;;      Locals:         0       2       0       0       0       0       0       0       0       0       0       0       
      +0       0       0       0       0
  1002 ;;      Temps:          0       1       0       0       0       0       0       0       0       0       0       0       
      +0       0       0       0       0
  1003 ;;      Totals:         0       4       0       0       0       0       0       0       0       0       0       0       
      +0       0       0       0       0
  1004 ;;Total ram usage:        4 bytes
  1005 ;; Hardware stack levels used: 1
  1006 ;; Hardware stack levels required when called: 8
  1007 ;; This function calls:
  1008 ;;		_gpio_pin_intialize
  1009 ;;		_lcd_8bit_send_comand
  1010 ;; This function is called by:
  1011 ;;		_ecu_layer_intialize
  1012 ;; This function uses a non-reentrant model
  1013 ;;
  1014                           
  1015                           	psect	text4
  1016   001782                     __ptext4:
  1017                           	callstack 0
  1018   001782                     _lcd_8bit_intialize:
  1019                           	callstack 20
  1020   001782                     
  1021                           ;ECU_layer/Chr_LCD/ecu_chr_lcd.c: 134:     uint8 l_data_pin_counter = 0;
  1022   001782  0E00               	movlw	0
  1023   001784  0100               	movlb	0	; () banked
  1024   001786  6FB6               	movwf	lcd_8bit_intialize@l_data_pin_counter& (0+255),b
  1025                           
  1026                           ;ECU_layer/Chr_LCD/ecu_chr_lcd.c: 135:      if(((void*)0) == lcd){
  1027   001788  51B4               	movf	lcd_8bit_intialize@lcd& (0+255),w,b
  1028   00178A  A4D8               	btfss	status,2,c
  1029   00178C  EFCA  F00B         	goto	u5361
  1030   001790  EFCC  F00B         	goto	u5360
  1031   001794                     u5361:
  1032   001794  EFD0  F00B         	goto	l6213
  1033   001798                     u5360:
  1034   001798                     
  1035                           ; BSR set to: 0
  1036                           ;ECU_layer/Chr_LCD/ecu_chr_lcd.c: 136:          ret= (Std_ReturnType)0x00;
  1037   001798  0E00               	movlw	0
  1038   00179A  6FB7               	movwf	lcd_8bit_intialize@ret& (0+255),b
  1039                           
  1040                           ;ECU_layer/Chr_LCD/ecu_chr_lcd.c: 137:      }
  1041   00179C  EF44  F00C         	goto	l6249
  1042   0017A0                     l6213:
  1043                           
  1044                           ; BSR set to: 0
  1045                           ;ECU_layer/Chr_LCD/ecu_chr_lcd.c: 139:          ret = gpio_pin_intialize(&(lcd->LCD_rs))
      +                          ;
  1046   0017A0  C0B4  F0AC         	movff	lcd_8bit_intialize@lcd,gpio_pin_intialize@pin_config
  1047   0017A4  EC62  F00E         	call	_gpio_pin_intialize	;wreg free
  1048   0017A8  0100               	movlb	0	; () banked
  1049   0017AA  6FB7               	movwf	lcd_8bit_intialize@ret& (0+255),b
  1050                           
  1051                           ;ECU_layer/Chr_LCD/ecu_chr_lcd.c: 140:          ret = gpio_pin_intialize(&(lcd->LCD_en))
      +                          ;
  1052   0017AC  29B4               	incf	lcd_8bit_intialize@lcd& (0+255),w,b
  1053   0017AE  6FAC               	movwf	gpio_pin_intialize@pin_config& (0+255),b
  1054   0017B0  EC62  F00E         	call	_gpio_pin_intialize	;wreg free
  1055   0017B4  0100               	movlb	0	; () banked
  1056   0017B6  6FB7               	movwf	lcd_8bit_intialize@ret& (0+255),b
  1057   0017B8                     
  1058                           ; BSR set to: 0
  1059                           ;ECU_layer/Chr_LCD/ecu_chr_lcd.c: 141:          for(l_data_pin_counter = 0; l_data_pin_c
      +                          ounter < 8; l_data_pin_counter++){
  1060   0017B8  0E00               	movlw	0
  1061   0017BA  6FB6               	movwf	lcd_8bit_intialize@l_data_pin_counter& (0+255),b
  1062   0017BC                     l6221:
  1063                           
  1064                           ; BSR set to: 0
  1065   0017BC  51B4               	movf	lcd_8bit_intialize@lcd& (0+255),w,b
  1066   0017BE  25B6               	addwf	lcd_8bit_intialize@l_data_pin_counter& (0+255),w,b
  1067   0017C0  0F02               	addlw	2
  1068   0017C2  6FAC               	movwf	gpio_pin_intialize@pin_config& (0+255),b
  1069   0017C4  EC62  F00E         	call	_gpio_pin_intialize	;wreg free
  1070   0017C8                     
  1071                           ;ECU_layer/Chr_LCD/ecu_chr_lcd.c: 143:          }
  1072   0017C8  0100               	movlb	0	; () banked
  1073   0017CA  2BB6               	incf	lcd_8bit_intialize@l_data_pin_counter& (0+255),f,b
  1074   0017CC                     
  1075                           ; BSR set to: 0
  1076   0017CC  0E07               	movlw	7
  1077   0017CE  65B6               	cpfsgt	lcd_8bit_intialize@l_data_pin_counter& (0+255),b
  1078   0017D0  EFEC  F00B         	goto	u5371
  1079   0017D4  EFEE  F00B         	goto	u5370
  1080   0017D8                     u5371:
  1081   0017D8  EFDE  F00B         	goto	l6221
  1082   0017DC                     u5370:
  1083   0017DC                     
  1084                           ; BSR set to: 0
  1085                           ;ECU_layer/Chr_LCD/ecu_chr_lcd.c: 144:          _delay((unsigned long)((20)*(8000000UL/4
      +                          000.0)));
  1086   0017DC  0E34               	movlw	52
  1087   0017DE  0100               	movlb	0	; () banked
  1088   0017E0  6FB5               	movwf	??_lcd_8bit_intialize& (0+255),b
  1089   0017E2  0EF1               	movlw	241
  1090   0017E4                     u6617:
  1091   0017E4  2EE8               	decfsz	wreg,f,c
  1092   0017E6  D7FE               	bra	u6617
  1093   0017E8  2FB5               	decfsz	??_lcd_8bit_intialize& (0+255),f,b
  1094   0017EA  D7FC               	bra	u6617
  1095   0017EC  D000               	nop2	
  1096   0017EE  C0B4  F0AE         	movff	lcd_8bit_intialize@lcd,lcd_8bit_send_comand@lcd
  1097   0017F2  0E38               	movlw	56
  1098   0017F4  0100               	movlb	0	; () banked
  1099   0017F6  6FAF               	movwf	lcd_8bit_send_comand@command& (0+255),b
  1100   0017F8  EC12  F00D         	call	_lcd_8bit_send_comand	;wreg free
  1101   0017FC                     
  1102                           ;ECU_layer/Chr_LCD/ecu_chr_lcd.c: 146:          _delay((unsigned long)((5)*(8000000UL/40
      +                          00.0)));
  1103   0017FC  0E0D               	movlw	13
  1104   0017FE  0100               	movlb	0	; () banked
  1105   001800  6FB5               	movwf	??_lcd_8bit_intialize& (0+255),b
  1106   001802  0EFB               	movlw	251
  1107   001804                     u6627:
  1108   001804  2EE8               	decfsz	wreg,f,c
  1109   001806  D7FE               	bra	u6627
  1110   001808  2FB5               	decfsz	??_lcd_8bit_intialize& (0+255),f,b
  1111   00180A  D7FC               	bra	u6627
  1112   00180C  D000               	nop2	
  1113   00180E  C0B4  F0AE         	movff	lcd_8bit_intialize@lcd,lcd_8bit_send_comand@lcd
  1114   001812  0E38               	movlw	56
  1115   001814  0100               	movlb	0	; () banked
  1116   001816  6FAF               	movwf	lcd_8bit_send_comand@command& (0+255),b
  1117   001818  EC12  F00D         	call	_lcd_8bit_send_comand	;wreg free
  1118   00181C                     
  1119                           ;ECU_layer/Chr_LCD/ecu_chr_lcd.c: 148:          _delay((unsigned long)((150)*(8000000UL/
      +                          4000000.0)));
  1120   00181C  0E64               	movlw	100
  1121   00181E                     u6637:
  1122   00181E  2EE8               	decfsz	wreg,f,c
  1123   001820  D7FE               	bra	u6637
  1124   001822  C0B4  F0AE         	movff	lcd_8bit_intialize@lcd,lcd_8bit_send_comand@lcd
  1125   001826  0E38               	movlw	56
  1126   001828  0100               	movlb	0	; () banked
  1127   00182A  6FAF               	movwf	lcd_8bit_send_comand@command& (0+255),b
  1128   00182C  EC12  F00D         	call	_lcd_8bit_send_comand	;wreg free
  1129   001830  C0B4  F0AE         	movff	lcd_8bit_intialize@lcd,lcd_8bit_send_comand@lcd
  1130   001834  0E01               	movlw	1
  1131   001836  0100               	movlb	0	; () banked
  1132   001838  6FAF               	movwf	lcd_8bit_send_comand@command& (0+255),b
  1133   00183A  EC12  F00D         	call	_lcd_8bit_send_comand	;wreg free
  1134   00183E  C0B4  F0AE         	movff	lcd_8bit_intialize@lcd,lcd_8bit_send_comand@lcd
  1135   001842  0E02               	movlw	2
  1136   001844  0100               	movlb	0	; () banked
  1137   001846  6FAF               	movwf	lcd_8bit_send_comand@command& (0+255),b
  1138   001848  EC12  F00D         	call	_lcd_8bit_send_comand	;wreg free
  1139   00184C  C0B4  F0AE         	movff	lcd_8bit_intialize@lcd,lcd_8bit_send_comand@lcd
  1140   001850  0E06               	movlw	6
  1141   001852  0100               	movlb	0	; () banked
  1142   001854  6FAF               	movwf	lcd_8bit_send_comand@command& (0+255),b
  1143   001856  EC12  F00D         	call	_lcd_8bit_send_comand	;wreg free
  1144   00185A  C0B4  F0AE         	movff	lcd_8bit_intialize@lcd,lcd_8bit_send_comand@lcd
  1145   00185E  0E0C               	movlw	12
  1146   001860  0100               	movlb	0	; () banked
  1147   001862  6FAF               	movwf	lcd_8bit_send_comand@command& (0+255),b
  1148   001864  EC12  F00D         	call	_lcd_8bit_send_comand	;wreg free
  1149   001868  C0B4  F0AE         	movff	lcd_8bit_intialize@lcd,lcd_8bit_send_comand@lcd
  1150   00186C  0E38               	movlw	56
  1151   00186E  0100               	movlb	0	; () banked
  1152   001870  6FAF               	movwf	lcd_8bit_send_comand@command& (0+255),b
  1153   001872  EC12  F00D         	call	_lcd_8bit_send_comand	;wreg free
  1154   001876                     
  1155                           ;ECU_layer/Chr_LCD/ecu_chr_lcd.c: 155:          ret = lcd_8bit_send_comand(lcd, 0x80);
  1156   001876  C0B4  F0AE         	movff	lcd_8bit_intialize@lcd,lcd_8bit_send_comand@lcd
  1157   00187A  0E80               	movlw	128
  1158   00187C  0100               	movlb	0	; () banked
  1159   00187E  6FAF               	movwf	lcd_8bit_send_comand@command& (0+255),b
  1160   001880  EC12  F00D         	call	_lcd_8bit_send_comand	;wreg free
  1161   001884  0100               	movlb	0	; () banked
  1162   001886  6FB7               	movwf	lcd_8bit_intialize@ret& (0+255),b
  1163   001888                     l6249:
  1164                           
  1165                           ; BSR set to: 0
  1166                           ;ECU_layer/Chr_LCD/ecu_chr_lcd.c: 157:      return(ret);
  1167   001888  51B7               	movf	lcd_8bit_intialize@ret& (0+255),w,b
  1168   00188A                     
  1169                           ; BSR set to: 0
  1170   00188A  0012               	return		;funcret
  1171   00188C                     __end_of_lcd_8bit_intialize:
  1172                           	callstack 0
  1173                           
  1174 ;; *************** function _lcd_8bit_send_comand *****************
  1175 ;; Defined at:
  1176 ;;		line 159 in file "ECU_layer/Chr_LCD/ecu_chr_lcd.c"
  1177 ;; Parameters:    Size  Location     Type
  1178 ;;  lcd             1    3[BANK0 ] PTR const struct .
  1179 ;;		 -> lcd_2(10), 
  1180 ;;  command         1    4[BANK0 ] unsigned char 
  1181 ;; Auto vars:     Size  Location     Type
  1182 ;;  l_pin_counte    1    8[BANK0 ] unsigned char 
  1183 ;;  ret             1    7[BANK0 ] unsigned char 
  1184 ;; Return value:  Size  Location     Type
  1185 ;;                  1    wreg      unsigned char 
  1186 ;; Registers used:
  1187 ;;		wreg, fsr2l, fsr2h, status,2, status,0, prodl, prodh, cstack
  1188 ;; Tracked objects:
  1189 ;;		On entry : 0/0
  1190 ;;		On exit  : 0/0
  1191 ;;		Unchanged: 0/0
  1192 ;; Data sizes:     COMRAM   BANK0   BANK1   BANK2   BANK3   BANK4   BANK5   BANK6   BANK7   BANK8   BANK9  BANK10  BANK1
      +1  BANK12  BANK13  BANK14  BANK15
  1193 ;;      Params:         0       2       0       0       0       0       0       0       0       0       0       0       
      +0       0       0       0       0
  1194 ;;      Locals:         0       2       0       0       0       0       0       0       0       0       0       0       
      +0       0       0       0       0
  1195 ;;      Temps:          0       2       0       0       0       0       0       0       0       0       0       0       
      +0       0       0       0       0
  1196 ;;      Totals:         0       6       0       0       0       0       0       0       0       0       0       0       
      +0       0       0       0       0
  1197 ;;Total ram usage:        6 bytes
  1198 ;; Hardware stack levels used: 1
  1199 ;; Hardware stack levels required when called: 7
  1200 ;; This function calls:
  1201 ;;		_gpio_pin_write_logic
  1202 ;;		_lcd_send_8_bits_enable_signal
  1203 ;; This function is called by:
  1204 ;;		_lcd_8bit_intialize
  1205 ;;		_lcd_8bit_send_custom_char
  1206 ;;		_lcd_8_bits_set_cusor
  1207 ;; This function uses a non-reentrant model
  1208 ;;
  1209                           
  1210                           	psect	text5
  1211   001A24                     __ptext5:
  1212                           	callstack 0
  1213   001A24                     _lcd_8bit_send_comand:
  1214                           	callstack 20
  1215   001A24                     
  1216                           ;ECU_layer/Chr_LCD/ecu_chr_lcd.c: 161:     uint8 l_pin_counter = 0;
  1217   001A24  0E00               	movlw	0
  1218   001A26  0100               	movlb	0	; () banked
  1219   001A28  6FB3               	movwf	lcd_8bit_send_comand@l_pin_counter& (0+255),b
  1220                           
  1221                           ;ECU_layer/Chr_LCD/ecu_chr_lcd.c: 162:      if(((void*)0) == lcd){
  1222   001A2A  51AE               	movf	lcd_8bit_send_comand@lcd& (0+255),w,b
  1223   001A2C  A4D8               	btfss	status,2,c
  1224   001A2E  EF1B  F00D         	goto	u5271
  1225   001A32  EF1D  F00D         	goto	u5270
  1226   001A36                     u5271:
  1227   001A36  EF21  F00D         	goto	l6123
  1228   001A3A                     u5270:
  1229   001A3A                     
  1230                           ; BSR set to: 0
  1231                           ;ECU_layer/Chr_LCD/ecu_chr_lcd.c: 163:          ret= (Std_ReturnType)0x00;
  1232   001A3A  0E00               	movlw	0
  1233   001A3C  6FB2               	movwf	lcd_8bit_send_comand@ret& (0+255),b
  1234                           
  1235                           ;ECU_layer/Chr_LCD/ecu_chr_lcd.c: 164:      }
  1236   001A3E  EF50  F00D         	goto	l6139
  1237   001A42                     l6123:
  1238                           
  1239                           ; BSR set to: 0
  1240   001A42  C0AE  F057         	movff	lcd_8bit_send_comand@lcd,gpio_pin_write_logic@pin_config
  1241   001A46  0E00               	movlw	0
  1242   001A48  6E58               	movwf	gpio_pin_write_logic@logic^0,c
  1243   001A4A  EC26  F00A         	call	_gpio_pin_write_logic	;wreg free
  1244   001A4E                     
  1245                           ;ECU_layer/Chr_LCD/ecu_chr_lcd.c: 167:           for(l_pin_counter = 0; l_pin_counter < 
      +                          8; ++l_pin_counter){
  1246   001A4E  0E00               	movlw	0
  1247   001A50  0100               	movlb	0	; () banked
  1248   001A52  6FB3               	movwf	lcd_8bit_send_comand@l_pin_counter& (0+255),b
  1249   001A54                     l6131:
  1250                           
  1251                           ; BSR set to: 0
  1252   001A54  51AE               	movf	lcd_8bit_send_comand@lcd& (0+255),w,b
  1253   001A56  25B3               	addwf	lcd_8bit_send_comand@l_pin_counter& (0+255),w,b
  1254   001A58  0F02               	addlw	2
  1255   001A5A  6E57               	movwf	gpio_pin_write_logic@pin_config^0,c
  1256   001A5C  C0B3  F0B0         	movff	lcd_8bit_send_comand@l_pin_counter,??_lcd_8bit_send_comand
  1257   001A60  C0AF  F0B1         	movff	lcd_8bit_send_comand@command,??_lcd_8bit_send_comand+1
  1258   001A64  2BB0               	incf	??_lcd_8bit_send_comand& (0+255),f,b
  1259   001A66  EF37  F00D         	goto	u5284
  1260   001A6A                     u5285:
  1261   001A6A  90D8               	bcf	status,0,c
  1262   001A6C  33B1               	rrcf	(??_lcd_8bit_send_comand+1)& (0+255),f,b
  1263   001A6E                     u5284:
  1264   001A6E  2FB0               	decfsz	??_lcd_8bit_send_comand& (0+255),f,b
  1265   001A70  EF35  F00D         	goto	u5285
  1266   001A74  0100               	movlb	0	; () banked
  1267   001A76  51B1               	movf	(??_lcd_8bit_send_comand+1)& (0+255),w,b
  1268   001A78  0B01               	andlw	1
  1269   001A7A  6E58               	movwf	gpio_pin_write_logic@logic^0,c
  1270   001A7C  EC26  F00A         	call	_gpio_pin_write_logic	;wreg free
  1271   001A80                     
  1272                           ;ECU_layer/Chr_LCD/ecu_chr_lcd.c: 169:           }
  1273   001A80  0100               	movlb	0	; () banked
  1274   001A82  2BB3               	incf	lcd_8bit_send_comand@l_pin_counter& (0+255),f,b
  1275   001A84                     
  1276                           ; BSR set to: 0
  1277   001A84  0E07               	movlw	7
  1278   001A86  65B3               	cpfsgt	lcd_8bit_send_comand@l_pin_counter& (0+255),b
  1279   001A88  EF48  F00D         	goto	u5291
  1280   001A8C  EF4A  F00D         	goto	u5290
  1281   001A90                     u5291:
  1282   001A90  EF2A  F00D         	goto	l6131
  1283   001A94                     u5290:
  1284   001A94                     
  1285                           ; BSR set to: 0
  1286                           ;ECU_layer/Chr_LCD/ecu_chr_lcd.c: 170:           ret = lcd_send_8_bits_enable_signal(lcd
      +                          );
  1287   001A94  C0AE  F0AC         	movff	lcd_8bit_send_comand@lcd,lcd_send_8_bits_enable_signal@lcd
  1288   001A98  EC22  F00F         	call	_lcd_send_8_bits_enable_signal	;wreg free
  1289   001A9C  0100               	movlb	0	; () banked
  1290   001A9E  6FB2               	movwf	lcd_8bit_send_comand@ret& (0+255),b
  1291   001AA0                     l6139:
  1292                           
  1293                           ; BSR set to: 0
  1294                           ;ECU_layer/Chr_LCD/ecu_chr_lcd.c: 172:      return(ret);
  1295   001AA0  51B2               	movf	lcd_8bit_send_comand@ret& (0+255),w,b
  1296   001AA2                     
  1297                           ; BSR set to: 0
  1298   001AA2  0012               	return		;funcret
  1299   001AA4                     __end_of_lcd_8bit_send_comand:
  1300                           	callstack 0
  1301                           
  1302 ;; *************** function _lcd_send_8_bits_enable_signal *****************
  1303 ;; Defined at:
  1304 ;;		line 320 in file "ECU_layer/Chr_LCD/ecu_chr_lcd.c"
  1305 ;; Parameters:    Size  Location     Type
  1306 ;;  lcd             1    1[BANK0 ] PTR const struct .
  1307 ;;		 -> lcd_2(10), 
  1308 ;; Auto vars:     Size  Location     Type
  1309 ;;  ret             1    2[BANK0 ] unsigned char 
  1310 ;; Return value:  Size  Location     Type
  1311 ;;                  1    wreg      unsigned char 
  1312 ;; Registers used:
  1313 ;;		wreg, fsr2l, fsr2h, status,2, status,0, prodl, prodh, cstack
  1314 ;; Tracked objects:
  1315 ;;		On entry : 0/0
  1316 ;;		On exit  : 0/0
  1317 ;;		Unchanged: 0/0
  1318 ;; Data sizes:     COMRAM   BANK0   BANK1   BANK2   BANK3   BANK4   BANK5   BANK6   BANK7   BANK8   BANK9  BANK10  BANK1
      +1  BANK12  BANK13  BANK14  BANK15
  1319 ;;      Params:         0       1       0       0       0       0       0       0       0       0       0       0       
      +0       0       0       0       0
  1320 ;;      Locals:         0       1       0       0       0       0       0       0       0       0       0       0       
      +0       0       0       0       0
  1321 ;;      Temps:          0       0       0       0       0       0       0       0       0       0       0       0       
      +0       0       0       0       0
  1322 ;;      Totals:         0       2       0       0       0       0       0       0       0       0       0       0       
      +0       0       0       0       0
  1323 ;;Total ram usage:        2 bytes
  1324 ;; Hardware stack levels used: 1
  1325 ;; Hardware stack levels required when called: 6
  1326 ;; This function calls:
  1327 ;;		_gpio_pin_write_logic
  1328 ;; This function is called by:
  1329 ;;		_lcd_8bit_send_comand
  1330 ;;		_lcd_8bit_send_data
  1331 ;; This function uses a non-reentrant model
  1332 ;;
  1333                           
  1334                           	psect	text6
  1335   001E44                     __ptext6:
  1336                           	callstack 0
  1337   001E44                     _lcd_send_8_bits_enable_signal:
  1338                           	callstack 20
  1339   001E44  0100               	movlb	0	; () banked
  1340   001E46  29AC               	incf	lcd_send_8_bits_enable_signal@lcd& (0+255),w,b
  1341   001E48  6E57               	movwf	gpio_pin_write_logic@pin_config^0,c
  1342   001E4A  0E01               	movlw	1
  1343   001E4C  6E58               	movwf	gpio_pin_write_logic@logic^0,c
  1344   001E4E  EC26  F00A         	call	_gpio_pin_write_logic	;wreg free
  1345   001E52                     
  1346                           ;ECU_layer/Chr_LCD/ecu_chr_lcd.c: 324:     _delay((unsigned long)((5)*(8000000UL/4000000
      +                          .0)));
  1347   001E52  0E03               	movlw	3
  1348   001E54                     u6647:
  1349   001E54  2EE8               	decfsz	wreg,f,c
  1350   001E56  D7FE               	bra	u6647
  1351   001E58  0000               	nop	
  1352   001E5A                     
  1353                           ;ECU_layer/Chr_LCD/ecu_chr_lcd.c: 325:     ret = gpio_pin_write_logic(&(lcd->LCD_en), GP
      +                          IO_LOW);
  1354   001E5A  0100               	movlb	0	; () banked
  1355   001E5C  29AC               	incf	lcd_send_8_bits_enable_signal@lcd& (0+255),w,b
  1356   001E5E  6E57               	movwf	gpio_pin_write_logic@pin_config^0,c
  1357   001E60  0E00               	movlw	0
  1358   001E62  6E58               	movwf	gpio_pin_write_logic@logic^0,c
  1359   001E64  EC26  F00A         	call	_gpio_pin_write_logic	;wreg free
  1360   001E68  0100               	movlb	0	; () banked
  1361   001E6A  6FAD               	movwf	lcd_send_8_bits_enable_signal@ret& (0+255),b
  1362   001E6C                     
  1363                           ; BSR set to: 0
  1364                           ;ECU_layer/Chr_LCD/ecu_chr_lcd.c: 326:     return(ret);
  1365   001E6C  51AD               	movf	lcd_send_8_bits_enable_signal@ret& (0+255),w,b
  1366   001E6E                     
  1367                           ; BSR set to: 0
  1368   001E6E  0012               	return		;funcret
  1369   001E70                     __end_of_lcd_send_8_bits_enable_signal:
  1370                           	callstack 0
  1371                           
  1372 ;; *************** function _lcd_4bit_intialize *****************
  1373 ;; Defined at:
  1374 ;;		line 18 in file "ECU_layer/Chr_LCD/ecu_chr_lcd.c"
  1375 ;; Parameters:    Size  Location     Type
  1376 ;;  lcd             1    7[BANK0 ] PTR const struct .
  1377 ;;		 -> lcd_1(6), 
  1378 ;; Auto vars:     Size  Location     Type
  1379 ;;  ret             1   10[BANK0 ] unsigned char 
  1380 ;;  l_data_pin_c    1    9[BANK0 ] unsigned char 
  1381 ;; Return value:  Size  Location     Type
  1382 ;;                  1    wreg      unsigned char 
  1383 ;; Registers used:
  1384 ;;		wreg, fsr2l, fsr2h, status,2, status,0, prodl, prodh, cstack
  1385 ;; Tracked objects:
  1386 ;;		On entry : 0/0
  1387 ;;		On exit  : 0/0
  1388 ;;		Unchanged: 0/0
  1389 ;; Data sizes:     COMRAM   BANK0   BANK1   BANK2   BANK3   BANK4   BANK5   BANK6   BANK7   BANK8   BANK9  BANK10  BANK1
      +1  BANK12  BANK13  BANK14  BANK15
  1390 ;;      Params:         0       1       0       0       0       0       0       0       0       0       0       0       
      +0       0       0       0       0
  1391 ;;      Locals:         0       2       0       0       0       0       0       0       0       0       0       0       
      +0       0       0       0       0
  1392 ;;      Temps:          0       1       0       0       0       0       0       0       0       0       0       0       
      +0       0       0       0       0
  1393 ;;      Totals:         0       4       0       0       0       0       0       0       0       0       0       0       
      +0       0       0       0       0
  1394 ;;Total ram usage:        4 bytes
  1395 ;; Hardware stack levels used: 1
  1396 ;; Hardware stack levels required when called: 8
  1397 ;; This function calls:
  1398 ;;		_gpio_pin_intialize
  1399 ;;		_lcd_4bit_send_comand
  1400 ;; This function is called by:
  1401 ;;		_ecu_layer_intialize
  1402 ;; This function uses a non-reentrant model
  1403 ;;
  1404                           
  1405                           	psect	text7
  1406   00188C                     __ptext7:
  1407                           	callstack 0
  1408   00188C                     _lcd_4bit_intialize:
  1409                           	callstack 20
  1410   00188C                     
  1411                           ;ECU_layer/Chr_LCD/ecu_chr_lcd.c: 20:     uint8 l_data_pin_counter = 0;
  1412   00188C  0E00               	movlw	0
  1413   00188E  0100               	movlb	0	; () banked
  1414   001890  6FB4               	movwf	lcd_4bit_intialize@l_data_pin_counter& (0+255),b
  1415                           
  1416                           ;ECU_layer/Chr_LCD/ecu_chr_lcd.c: 21:      if(((void*)0) == lcd){
  1417   001892  51B2               	movf	lcd_4bit_intialize@lcd& (0+255),w,b
  1418   001894  A4D8               	btfss	status,2,c
  1419   001896  EF4F  F00C         	goto	u5341
  1420   00189A  EF51  F00C         	goto	u5340
  1421   00189E                     u5341:
  1422   00189E  EF55  F00C         	goto	l6169
  1423   0018A2                     u5340:
  1424   0018A2                     
  1425                           ; BSR set to: 0
  1426                           ;ECU_layer/Chr_LCD/ecu_chr_lcd.c: 22:          ret= (Std_ReturnType)0x00;
  1427   0018A2  0E00               	movlw	0
  1428   0018A4  6FB5               	movwf	lcd_4bit_intialize@ret& (0+255),b
  1429                           
  1430                           ;ECU_layer/Chr_LCD/ecu_chr_lcd.c: 23:      }
  1431   0018A6  EFC9  F00C         	goto	l6205
  1432   0018AA                     l6169:
  1433                           
  1434                           ; BSR set to: 0
  1435                           ;ECU_layer/Chr_LCD/ecu_chr_lcd.c: 25:          ret = gpio_pin_intialize(&(lcd->LCD_rs));
  1436   0018AA  C0B2  F0AC         	movff	lcd_4bit_intialize@lcd,gpio_pin_intialize@pin_config
  1437   0018AE  EC62  F00E         	call	_gpio_pin_intialize	;wreg free
  1438   0018B2  0100               	movlb	0	; () banked
  1439   0018B4  6FB5               	movwf	lcd_4bit_intialize@ret& (0+255),b
  1440                           
  1441                           ;ECU_layer/Chr_LCD/ecu_chr_lcd.c: 26:          ret = gpio_pin_intialize(&(lcd->LCD_en));
  1442   0018B6  29B2               	incf	lcd_4bit_intialize@lcd& (0+255),w,b
  1443   0018B8  6FAC               	movwf	gpio_pin_intialize@pin_config& (0+255),b
  1444   0018BA  EC62  F00E         	call	_gpio_pin_intialize	;wreg free
  1445   0018BE  0100               	movlb	0	; () banked
  1446   0018C0  6FB5               	movwf	lcd_4bit_intialize@ret& (0+255),b
  1447   0018C2                     
  1448                           ; BSR set to: 0
  1449                           ;ECU_layer/Chr_LCD/ecu_chr_lcd.c: 27:          for(l_data_pin_counter = 0; l_data_pin_co
      +                          unter < 4; l_data_pin_counter++){
  1450   0018C2  0E00               	movlw	0
  1451   0018C4  6FB4               	movwf	lcd_4bit_intialize@l_data_pin_counter& (0+255),b
  1452   0018C6                     l6177:
  1453                           
  1454                           ; BSR set to: 0
  1455   0018C6  51B2               	movf	lcd_4bit_intialize@lcd& (0+255),w,b
  1456   0018C8  25B4               	addwf	lcd_4bit_intialize@l_data_pin_counter& (0+255),w,b
  1457   0018CA  0F02               	addlw	2
  1458   0018CC  6FAC               	movwf	gpio_pin_intialize@pin_config& (0+255),b
  1459   0018CE  EC62  F00E         	call	_gpio_pin_intialize	;wreg free
  1460   0018D2                     
  1461                           ;ECU_layer/Chr_LCD/ecu_chr_lcd.c: 29:          }
  1462   0018D2  0100               	movlb	0	; () banked
  1463   0018D4  2BB4               	incf	lcd_4bit_intialize@l_data_pin_counter& (0+255),f,b
  1464   0018D6                     
  1465                           ; BSR set to: 0
  1466   0018D6  0E03               	movlw	3
  1467   0018D8  65B4               	cpfsgt	lcd_4bit_intialize@l_data_pin_counter& (0+255),b
  1468   0018DA  EF71  F00C         	goto	u5351
  1469   0018DE  EF73  F00C         	goto	u5350
  1470   0018E2                     u5351:
  1471   0018E2  EF63  F00C         	goto	l6177
  1472   0018E6                     u5350:
  1473   0018E6                     
  1474                           ; BSR set to: 0
  1475                           ;ECU_layer/Chr_LCD/ecu_chr_lcd.c: 30:            _delay((unsigned long)((20)*(8000000UL/
      +                          4000.0)));
  1476   0018E6  0E34               	movlw	52
  1477   0018E8  0100               	movlb	0	; () banked
  1478   0018EA  6FB3               	movwf	??_lcd_4bit_intialize& (0+255),b
  1479   0018EC  0EF1               	movlw	241
  1480   0018EE                     u6657:
  1481   0018EE  2EE8               	decfsz	wreg,f,c
  1482   0018F0  D7FE               	bra	u6657
  1483   0018F2  2FB3               	decfsz	??_lcd_4bit_intialize& (0+255),f,b
  1484   0018F4  D7FC               	bra	u6657
  1485   0018F6  D000               	nop2	
  1486   0018F8  C0B2  F0AF         	movff	lcd_4bit_intialize@lcd,lcd_4bit_send_comand@lcd
  1487   0018FC  0E38               	movlw	56
  1488   0018FE  0100               	movlb	0	; () banked
  1489   001900  6FB0               	movwf	lcd_4bit_send_comand@command& (0+255),b
  1490   001902  ECFC  F00D         	call	_lcd_4bit_send_comand	;wreg free
  1491   001906                     
  1492                           ;ECU_layer/Chr_LCD/ecu_chr_lcd.c: 32:          _delay((unsigned long)((5)*(8000000UL/400
      +                          0.0)));
  1493   001906  0E0D               	movlw	13
  1494   001908  0100               	movlb	0	; () banked
  1495   00190A  6FB3               	movwf	??_lcd_4bit_intialize& (0+255),b
  1496   00190C  0EFB               	movlw	251
  1497   00190E                     u6667:
  1498   00190E  2EE8               	decfsz	wreg,f,c
  1499   001910  D7FE               	bra	u6667
  1500   001912  2FB3               	decfsz	??_lcd_4bit_intialize& (0+255),f,b
  1501   001914  D7FC               	bra	u6667
  1502   001916  D000               	nop2	
  1503   001918  C0B2  F0AF         	movff	lcd_4bit_intialize@lcd,lcd_4bit_send_comand@lcd
  1504   00191C  0E38               	movlw	56
  1505   00191E  0100               	movlb	0	; () banked
  1506   001920  6FB0               	movwf	lcd_4bit_send_comand@command& (0+255),b
  1507   001922  ECFC  F00D         	call	_lcd_4bit_send_comand	;wreg free
  1508   001926                     
  1509                           ;ECU_layer/Chr_LCD/ecu_chr_lcd.c: 34:          _delay((unsigned long)((150)*(8000000UL/4
      +                          000000.0)));
  1510   001926  0E64               	movlw	100
  1511   001928                     u6677:
  1512   001928  2EE8               	decfsz	wreg,f,c
  1513   00192A  D7FE               	bra	u6677
  1514   00192C  C0B2  F0AF         	movff	lcd_4bit_intialize@lcd,lcd_4bit_send_comand@lcd
  1515   001930  0E38               	movlw	56
  1516   001932  0100               	movlb	0	; () banked
  1517   001934  6FB0               	movwf	lcd_4bit_send_comand@command& (0+255),b
  1518   001936  ECFC  F00D         	call	_lcd_4bit_send_comand	;wreg free
  1519   00193A  C0B2  F0AF         	movff	lcd_4bit_intialize@lcd,lcd_4bit_send_comand@lcd
  1520   00193E  0E01               	movlw	1
  1521   001940  0100               	movlb	0	; () banked
  1522   001942  6FB0               	movwf	lcd_4bit_send_comand@command& (0+255),b
  1523   001944  ECFC  F00D         	call	_lcd_4bit_send_comand	;wreg free
  1524   001948  C0B2  F0AF         	movff	lcd_4bit_intialize@lcd,lcd_4bit_send_comand@lcd
  1525   00194C  0E02               	movlw	2
  1526   00194E  0100               	movlb	0	; () banked
  1527   001950  6FB0               	movwf	lcd_4bit_send_comand@command& (0+255),b
  1528   001952  ECFC  F00D         	call	_lcd_4bit_send_comand	;wreg free
  1529   001956  C0B2  F0AF         	movff	lcd_4bit_intialize@lcd,lcd_4bit_send_comand@lcd
  1530   00195A  0E06               	movlw	6
  1531   00195C  0100               	movlb	0	; () banked
  1532   00195E  6FB0               	movwf	lcd_4bit_send_comand@command& (0+255),b
  1533   001960  ECFC  F00D         	call	_lcd_4bit_send_comand	;wreg free
  1534   001964  C0B2  F0AF         	movff	lcd_4bit_intialize@lcd,lcd_4bit_send_comand@lcd
  1535   001968  0E0C               	movlw	12
  1536   00196A  0100               	movlb	0	; () banked
  1537   00196C  6FB0               	movwf	lcd_4bit_send_comand@command& (0+255),b
  1538   00196E  ECFC  F00D         	call	_lcd_4bit_send_comand	;wreg free
  1539   001972  C0B2  F0AF         	movff	lcd_4bit_intialize@lcd,lcd_4bit_send_comand@lcd
  1540   001976  0E28               	movlw	40
  1541   001978  0100               	movlb	0	; () banked
  1542   00197A  6FB0               	movwf	lcd_4bit_send_comand@command& (0+255),b
  1543   00197C  ECFC  F00D         	call	_lcd_4bit_send_comand	;wreg free
  1544   001980                     
  1545                           ;ECU_layer/Chr_LCD/ecu_chr_lcd.c: 41:          ret = lcd_4bit_send_comand(lcd, 0x80);
  1546   001980  C0B2  F0AF         	movff	lcd_4bit_intialize@lcd,lcd_4bit_send_comand@lcd
  1547   001984  0E80               	movlw	128
  1548   001986  0100               	movlb	0	; () banked
  1549   001988  6FB0               	movwf	lcd_4bit_send_comand@command& (0+255),b
  1550   00198A  ECFC  F00D         	call	_lcd_4bit_send_comand	;wreg free
  1551   00198E  0100               	movlb	0	; () banked
  1552   001990  6FB5               	movwf	lcd_4bit_intialize@ret& (0+255),b
  1553   001992                     l6205:
  1554                           
  1555                           ; BSR set to: 0
  1556                           ;ECU_layer/Chr_LCD/ecu_chr_lcd.c: 43:      return(ret);
  1557   001992  51B5               	movf	lcd_4bit_intialize@ret& (0+255),w,b
  1558   001994                     
  1559                           ; BSR set to: 0
  1560   001994  0012               	return		;funcret
  1561   001996                     __end_of_lcd_4bit_intialize:
  1562                           	callstack 0
  1563                           
  1564 ;; *************** function _lcd_4bit_send_comand *****************
  1565 ;; Defined at:
  1566 ;;		line 46 in file "ECU_layer/Chr_LCD/ecu_chr_lcd.c"
  1567 ;; Parameters:    Size  Location     Type
  1568 ;;  lcd             1    4[BANK0 ] PTR const struct .
  1569 ;;		 -> lcd_1(6), 
  1570 ;;  command         1    5[BANK0 ] unsigned char 
  1571 ;; Auto vars:     Size  Location     Type
  1572 ;;  ret             1    6[BANK0 ] unsigned char 
  1573 ;; Return value:  Size  Location     Type
  1574 ;;                  1    wreg      unsigned char 
  1575 ;; Registers used:
  1576 ;;		wreg, fsr2l, fsr2h, status,2, status,0, prodl, prodh, cstack
  1577 ;; Tracked objects:
  1578 ;;		On entry : 0/0
  1579 ;;		On exit  : 0/0
  1580 ;;		Unchanged: 0/0
  1581 ;; Data sizes:     COMRAM   BANK0   BANK1   BANK2   BANK3   BANK4   BANK5   BANK6   BANK7   BANK8   BANK9  BANK10  BANK1
      +1  BANK12  BANK13  BANK14  BANK15
  1582 ;;      Params:         0       2       0       0       0       0       0       0       0       0       0       0       
      +0       0       0       0       0
  1583 ;;      Locals:         0       1       0       0       0       0       0       0       0       0       0       0       
      +0       0       0       0       0
  1584 ;;      Temps:          0       0       0       0       0       0       0       0       0       0       0       0       
      +0       0       0       0       0
  1585 ;;      Totals:         0       3       0       0       0       0       0       0       0       0       0       0       
      +0       0       0       0       0
  1586 ;;Total ram usage:        3 bytes
  1587 ;; Hardware stack levels used: 1
  1588 ;; Hardware stack levels required when called: 7
  1589 ;; This function calls:
  1590 ;;		_gpio_pin_write_logic
  1591 ;;		_lcd_send_4_bits
  1592 ;;		_lcd_send_4_bits_enable_signal
  1593 ;; This function is called by:
  1594 ;;		_lcd_4bit_intialize
  1595 ;;		_lcd_4bit_send_custom_char
  1596 ;;		_lcd_4_bits_set_cusor
  1597 ;; This function uses a non-reentrant model
  1598 ;;
  1599                           
  1600                           	psect	text8
  1601   001BF8                     __ptext8:
  1602                           	callstack 0
  1603   001BF8                     _lcd_4bit_send_comand:
  1604                           	callstack 20
  1605   001BF8                     
  1606                           ;ECU_layer/Chr_LCD/ecu_chr_lcd.c: 48:      if(((void*)0) == lcd){
  1607   001BF8  0100               	movlb	0	; () banked
  1608   001BFA  51AF               	movf	lcd_4bit_send_comand@lcd& (0+255),w,b
  1609   001BFC  A4D8               	btfss	status,2,c
  1610   001BFE  EF03  F00E         	goto	u5261
  1611   001C02  EF05  F00E         	goto	u5260
  1612   001C06                     u5261:
  1613   001C06  EF09  F00E         	goto	l6113
  1614   001C0A                     u5260:
  1615   001C0A                     
  1616                           ; BSR set to: 0
  1617                           ;ECU_layer/Chr_LCD/ecu_chr_lcd.c: 49:          ret= (Std_ReturnType)0x00;
  1618   001C0A  0E00               	movlw	0
  1619   001C0C  6FB1               	movwf	lcd_4bit_send_comand@ret& (0+255),b
  1620                           
  1621                           ;ECU_layer/Chr_LCD/ecu_chr_lcd.c: 50:      }
  1622   001C0E  EF2E  F00E         	goto	l6115
  1623   001C12                     l6113:
  1624                           
  1625                           ; BSR set to: 0
  1626                           ;ECU_layer/Chr_LCD/ecu_chr_lcd.c: 52:            ret = gpio_pin_write_logic(&(lcd->LCD_r
      +                          s), GPIO_LOW);
  1627   001C12  C0AF  F057         	movff	lcd_4bit_send_comand@lcd,gpio_pin_write_logic@pin_config
  1628   001C16  0E00               	movlw	0
  1629   001C18  6E58               	movwf	gpio_pin_write_logic@logic^0,c
  1630   001C1A  EC26  F00A         	call	_gpio_pin_write_logic	;wreg free
  1631   001C1E  0100               	movlb	0	; () banked
  1632   001C20  6FB1               	movwf	lcd_4bit_send_comand@ret& (0+255),b
  1633                           
  1634                           ;ECU_layer/Chr_LCD/ecu_chr_lcd.c: 53:            ret = lcd_send_4_bits(lcd, (command >> 
      +                          4));
  1635   001C22  C0AF  F0AC         	movff	lcd_4bit_send_comand@lcd,lcd_send_4_bits@lcd
  1636   001C26  39B0               	swapf	lcd_4bit_send_comand@command& (0+255),w,b
  1637   001C28  0B0F               	andlw	15
  1638   001C2A  6FAD               	movwf	lcd_send_4_bits@_data_command& (0+255),b
  1639   001C2C  EC94  F00E         	call	_lcd_send_4_bits	;wreg free
  1640   001C30  0100               	movlb	0	; () banked
  1641   001C32  6FB1               	movwf	lcd_4bit_send_comand@ret& (0+255),b
  1642                           
  1643                           ;ECU_layer/Chr_LCD/ecu_chr_lcd.c: 54:            ret = lcd_send_4_bits_enable_signal(lcd
      +                          );
  1644   001C34  C0AF  F0AC         	movff	lcd_4bit_send_comand@lcd,lcd_send_4_bits_enable_signal@lcd
  1645   001C38  EC38  F00F         	call	_lcd_send_4_bits_enable_signal	;wreg free
  1646   001C3C  0100               	movlb	0	; () banked
  1647   001C3E  6FB1               	movwf	lcd_4bit_send_comand@ret& (0+255),b
  1648                           
  1649                           ;ECU_layer/Chr_LCD/ecu_chr_lcd.c: 55:            ret = lcd_send_4_bits(lcd, command );
  1650   001C40  C0AF  F0AC         	movff	lcd_4bit_send_comand@lcd,lcd_send_4_bits@lcd
  1651   001C44  C0B0  F0AD         	movff	lcd_4bit_send_comand@command,lcd_send_4_bits@_data_command
  1652   001C48  EC94  F00E         	call	_lcd_send_4_bits	;wreg free
  1653   001C4C  0100               	movlb	0	; () banked
  1654   001C4E  6FB1               	movwf	lcd_4bit_send_comand@ret& (0+255),b
  1655                           
  1656                           ;ECU_layer/Chr_LCD/ecu_chr_lcd.c: 56:            ret = lcd_send_4_bits_enable_signal(lcd
      +                          );
  1657   001C50  C0AF  F0AC         	movff	lcd_4bit_send_comand@lcd,lcd_send_4_bits_enable_signal@lcd
  1658   001C54  EC38  F00F         	call	_lcd_send_4_bits_enable_signal	;wreg free
  1659   001C58  0100               	movlb	0	; () banked
  1660   001C5A  6FB1               	movwf	lcd_4bit_send_comand@ret& (0+255),b
  1661   001C5C                     l6115:
  1662                           
  1663                           ; BSR set to: 0
  1664                           ;ECU_layer/Chr_LCD/ecu_chr_lcd.c: 59:      return(ret);
  1665   001C5C  51B1               	movf	lcd_4bit_send_comand@ret& (0+255),w,b
  1666   001C5E                     
  1667                           ; BSR set to: 0
  1668   001C5E  0012               	return		;funcret
  1669   001C60                     __end_of_lcd_4bit_send_comand:
  1670                           	callstack 0
  1671                           
  1672 ;; *************** function _lcd_send_4_bits_enable_signal *****************
  1673 ;; Defined at:
  1674 ;;		line 295 in file "ECU_layer/Chr_LCD/ecu_chr_lcd.c"
  1675 ;; Parameters:    Size  Location     Type
  1676 ;;  lcd             1    1[BANK0 ] PTR const struct .
  1677 ;;		 -> lcd_1(6), 
  1678 ;; Auto vars:     Size  Location     Type
  1679 ;;  ret             1    2[BANK0 ] unsigned char 
  1680 ;; Return value:  Size  Location     Type
  1681 ;;                  1    wreg      unsigned char 
  1682 ;; Registers used:
  1683 ;;		wreg, fsr2l, fsr2h, status,2, status,0, prodl, prodh, cstack
  1684 ;; Tracked objects:
  1685 ;;		On entry : 0/0
  1686 ;;		On exit  : 0/0
  1687 ;;		Unchanged: 0/0
  1688 ;; Data sizes:     COMRAM   BANK0   BANK1   BANK2   BANK3   BANK4   BANK5   BANK6   BANK7   BANK8   BANK9  BANK10  BANK1
      +1  BANK12  BANK13  BANK14  BANK15
  1689 ;;      Params:         0       1       0       0       0       0       0       0       0       0       0       0       
      +0       0       0       0       0
  1690 ;;      Locals:         0       1       0       0       0       0       0       0       0       0       0       0       
      +0       0       0       0       0
  1691 ;;      Temps:          0       0       0       0       0       0       0       0       0       0       0       0       
      +0       0       0       0       0
  1692 ;;      Totals:         0       2       0       0       0       0       0       0       0       0       0       0       
      +0       0       0       0       0
  1693 ;;Total ram usage:        2 bytes
  1694 ;; Hardware stack levels used: 1
  1695 ;; Hardware stack levels required when called: 6
  1696 ;; This function calls:
  1697 ;;		_gpio_pin_write_logic
  1698 ;; This function is called by:
  1699 ;;		_lcd_4bit_send_comand
  1700 ;;		_lcd_4bit_send_data
  1701 ;; This function uses a non-reentrant model
  1702 ;;
  1703                           
  1704                           	psect	text9
  1705   001E70                     __ptext9:
  1706                           	callstack 0
  1707   001E70                     _lcd_send_4_bits_enable_signal:
  1708                           	callstack 20
  1709   001E70  0100               	movlb	0	; () banked
  1710   001E72  29AC               	incf	lcd_send_4_bits_enable_signal@lcd& (0+255),w,b
  1711   001E74  6E57               	movwf	gpio_pin_write_logic@pin_config^0,c
  1712   001E76  0E01               	movlw	1
  1713   001E78  6E58               	movwf	gpio_pin_write_logic@logic^0,c
  1714   001E7A  EC26  F00A         	call	_gpio_pin_write_logic	;wreg free
  1715   001E7E                     
  1716                           ;ECU_layer/Chr_LCD/ecu_chr_lcd.c: 299:     _delay((unsigned long)((5)*(8000000UL/4000000
      +                          .0)));
  1717   001E7E  0E03               	movlw	3
  1718   001E80                     u6687:
  1719   001E80  2EE8               	decfsz	wreg,f,c
  1720   001E82  D7FE               	bra	u6687
  1721   001E84  0000               	nop	
  1722   001E86                     
  1723                           ;ECU_layer/Chr_LCD/ecu_chr_lcd.c: 300:     ret = gpio_pin_write_logic(&(lcd->LCD_en), GP
      +                          IO_LOW);
  1724   001E86  0100               	movlb	0	; () banked
  1725   001E88  29AC               	incf	lcd_send_4_bits_enable_signal@lcd& (0+255),w,b
  1726   001E8A  6E57               	movwf	gpio_pin_write_logic@pin_config^0,c
  1727   001E8C  0E00               	movlw	0
  1728   001E8E  6E58               	movwf	gpio_pin_write_logic@logic^0,c
  1729   001E90  EC26  F00A         	call	_gpio_pin_write_logic	;wreg free
  1730   001E94  0100               	movlb	0	; () banked
  1731   001E96  6FAD               	movwf	lcd_send_4_bits_enable_signal@ret& (0+255),b
  1732   001E98                     
  1733                           ; BSR set to: 0
  1734                           ;ECU_layer/Chr_LCD/ecu_chr_lcd.c: 301:     return(ret);
  1735   001E98  51AD               	movf	lcd_send_4_bits_enable_signal@ret& (0+255),w,b
  1736   001E9A                     
  1737                           ; BSR set to: 0
  1738   001E9A  0012               	return		;funcret
  1739   001E9C                     __end_of_lcd_send_4_bits_enable_signal:
  1740                           	callstack 0
  1741                           
  1742 ;; *************** function _lcd_send_4_bits *****************
  1743 ;; Defined at:
  1744 ;;		line 284 in file "ECU_layer/Chr_LCD/ecu_chr_lcd.c"
  1745 ;; Parameters:    Size  Location     Type
  1746 ;;  lcd             1    1[BANK0 ] PTR const struct .
  1747 ;;		 -> lcd_1(6), 
  1748 ;;  _data_comman    1    2[BANK0 ] unsigned char 
  1749 ;; Auto vars:     Size  Location     Type
  1750 ;;  ret             1    3[BANK0 ] unsigned char 
  1751 ;; Return value:  Size  Location     Type
  1752 ;;                  1    wreg      unsigned char 
  1753 ;; Registers used:
  1754 ;;		wreg, fsr2l, fsr2h, status,2, status,0, prodl, prodh, cstack
  1755 ;; Tracked objects:
  1756 ;;		On entry : 0/0
  1757 ;;		On exit  : 0/0
  1758 ;;		Unchanged: 0/0
  1759 ;; Data sizes:     COMRAM   BANK0   BANK1   BANK2   BANK3   BANK4   BANK5   BANK6   BANK7   BANK8   BANK9  BANK10  BANK1
      +1  BANK12  BANK13  BANK14  BANK15
  1760 ;;      Params:         0       2       0       0       0       0       0       0       0       0       0       0       
      +0       0       0       0       0
  1761 ;;      Locals:         0       1       0       0       0       0       0       0       0       0       0       0       
      +0       0       0       0       0
  1762 ;;      Temps:          0       0       0       0       0       0       0       0       0       0       0       0       
      +0       0       0       0       0
  1763 ;;      Totals:         0       3       0       0       0       0       0       0       0       0       0       0       
      +0       0       0       0       0
  1764 ;;Total ram usage:        3 bytes
  1765 ;; Hardware stack levels used: 1
  1766 ;; Hardware stack levels required when called: 6
  1767 ;; This function calls:
  1768 ;;		_gpio_pin_write_logic
  1769 ;; This function is called by:
  1770 ;;		_lcd_4bit_send_comand
  1771 ;;		_lcd_4bit_send_data
  1772 ;; This function uses a non-reentrant model
  1773 ;;
  1774                           
  1775                           	psect	text10
  1776   001D28                     __ptext10:
  1777                           	callstack 0
  1778   001D28                     _lcd_send_4_bits:
  1779                           	callstack 20
  1780   001D28  0100               	movlb	0	; () banked
  1781   001D2A  51AC               	movf	lcd_send_4_bits@lcd& (0+255),w,b
  1782   001D2C  0F02               	addlw	2
  1783   001D2E  6E57               	movwf	gpio_pin_write_logic@pin_config^0,c
  1784   001D30  51AD               	movf	lcd_send_4_bits@_data_command& (0+255),w,b
  1785   001D32  0B01               	andlw	1
  1786   001D34  6E58               	movwf	gpio_pin_write_logic@logic^0,c
  1787   001D36  EC26  F00A         	call	_gpio_pin_write_logic	;wreg free
  1788   001D3A  0100               	movlb	0	; () banked
  1789   001D3C  51AC               	movf	lcd_send_4_bits@lcd& (0+255),w,b
  1790   001D3E  0F03               	addlw	3
  1791   001D40  6E57               	movwf	gpio_pin_write_logic@pin_config^0,c
  1792   001D42  90D8               	bcf	status,0,c
  1793   001D44  31AD               	rrcf	lcd_send_4_bits@_data_command& (0+255),w,b
  1794   001D46  0B01               	andlw	1
  1795   001D48  6E58               	movwf	gpio_pin_write_logic@logic^0,c
  1796   001D4A  EC26  F00A         	call	_gpio_pin_write_logic	;wreg free
  1797   001D4E  0100               	movlb	0	; () banked
  1798   001D50  51AC               	movf	lcd_send_4_bits@lcd& (0+255),w,b
  1799   001D52  0F04               	addlw	4
  1800   001D54  6E57               	movwf	gpio_pin_write_logic@pin_config^0,c
  1801   001D56  41AD               	rrncf	lcd_send_4_bits@_data_command& (0+255),w,b
  1802   001D58  42E8               	rrncf	wreg,f,c
  1803   001D5A  0B3F               	andlw	63
  1804   001D5C  0B01               	andlw	1
  1805   001D5E  6E58               	movwf	gpio_pin_write_logic@logic^0,c
  1806   001D60  EC26  F00A         	call	_gpio_pin_write_logic	;wreg free
  1807   001D64                     
  1808                           ;ECU_layer/Chr_LCD/ecu_chr_lcd.c: 290:     ret = gpio_pin_write_logic(&(lcd->LCD_data[3]
      +                          ), (_data_command >> 3) & (uint8)0x01);
  1809   001D64  0100               	movlb	0	; () banked
  1810   001D66  51AC               	movf	lcd_send_4_bits@lcd& (0+255),w,b
  1811   001D68  0F05               	addlw	5
  1812   001D6A  6E57               	movwf	gpio_pin_write_logic@pin_config^0,c
  1813   001D6C  39AD               	swapf	lcd_send_4_bits@_data_command& (0+255),w,b
  1814   001D6E  46E8               	rlncf	wreg,f,c
  1815   001D70  0B1F               	andlw	31
  1816   001D72  0B01               	andlw	1
  1817   001D74  6E58               	movwf	gpio_pin_write_logic@logic^0,c
  1818   001D76  EC26  F00A         	call	_gpio_pin_write_logic	;wreg free
  1819   001D7A  0100               	movlb	0	; () banked
  1820   001D7C  6FAE               	movwf	lcd_send_4_bits@ret& (0+255),b
  1821                           
  1822                           ;ECU_layer/Chr_LCD/ecu_chr_lcd.c: 292:     return(ret);
  1823   001D7E  51AE               	movf	lcd_send_4_bits@ret& (0+255),w,b
  1824   001D80                     
  1825                           ; BSR set to: 0
  1826   001D80  0012               	return		;funcret
  1827   001D82                     __end_of_lcd_send_4_bits:
  1828                           	callstack 0
  1829                           
  1830 ;; *************** function _gpio_pin_intialize *****************
  1831 ;; Defined at:
  1832 ;;		line 101 in file "MCAL_layer/GPIO/hal_gpio.c"
  1833 ;; Parameters:    Size  Location     Type
  1834 ;;  pin_config      1    1[BANK0 ] PTR const struct .
  1835 ;;		 -> lcd_2$LCD_data(8), lcd_2(10), lcd_1$LCD_data(4), lcd_1(6), 
  1836 ;;		 -> relay_intialization@relay_obj(1), led_intialization@pin_obj(1), 
  1837 ;; Auto vars:     Size  Location     Type
  1838 ;;  ret             1    3[BANK0 ] unsigned char 
  1839 ;; Return value:  Size  Location     Type
  1840 ;;                  1    wreg      unsigned char 
  1841 ;; Registers used:
  1842 ;;		wreg, fsr2l, fsr2h, status,2, status,0, prodl, prodh, cstack
  1843 ;; Tracked objects:
  1844 ;;		On entry : 0/0
  1845 ;;		On exit  : 0/0
  1846 ;;		Unchanged: 0/0
  1847 ;; Data sizes:     COMRAM   BANK0   BANK1   BANK2   BANK3   BANK4   BANK5   BANK6   BANK7   BANK8   BANK9  BANK10  BANK1
      +1  BANK12  BANK13  BANK14  BANK15
  1848 ;;      Params:         0       1       0       0       0       0       0       0       0       0       0       0       
      +0       0       0       0       0
  1849 ;;      Locals:         0       1       0       0       0       0       0       0       0       0       0       0       
      +0       0       0       0       0
  1850 ;;      Temps:          0       1       0       0       0       0       0       0       0       0       0       0       
      +0       0       0       0       0
  1851 ;;      Totals:         0       3       0       0       0       0       0       0       0       0       0       0       
      +0       0       0       0       0
  1852 ;;Total ram usage:        3 bytes
  1853 ;; Hardware stack levels used: 1
  1854 ;; Hardware stack levels required when called: 6
  1855 ;; This function calls:
  1856 ;;		_gpio_pin_direction_intialize
  1857 ;;		_gpio_pin_write_logic
  1858 ;; This function is called by:
  1859 ;;		_lcd_4bit_intialize
  1860 ;;		_lcd_8bit_intialize
  1861 ;;		_led_intialization
  1862 ;;		_seven_segment_intialize
  1863 ;;		_dc_motor_intialization
  1864 ;;		_keybad_intialization
  1865 ;;		_relay_intialization
  1866 ;;		_CCP_Init
  1867 ;; This function uses a non-reentrant model
  1868 ;;
  1869                           
  1870                           	psect	text11
  1871   001CC4                     __ptext11:
  1872                           	callstack 0
  1873   001CC4                     _gpio_pin_intialize:
  1874                           	callstack 23
  1875   001CC4                     
  1876                           ;MCAL_layer/GPIO/hal_gpio.c: 103:     if((((void*)0)==pin_config)||((pin_config->pin)>8 
      +                          -1)){
  1877   001CC4  0100               	movlb	0	; () banked
  1878   001CC6  51AC               	movf	gpio_pin_intialize@pin_config& (0+255),w,b
  1879   001CC8  B4D8               	btfsc	status,2,c
  1880   001CCA  EF69  F00E         	goto	u5241
  1881   001CCE  EF6B  F00E         	goto	u5240
  1882   001CD2                     u5241:
  1883   001CD2  EF7B  F00E         	goto	l6101
  1884   001CD6                     u5240:
  1885   001CD6                     
  1886                           ; BSR set to: 0
  1887   001CD6  51AC               	movf	gpio_pin_intialize@pin_config& (0+255),w,b
  1888   001CD8  6ED9               	movwf	fsr2l,c
  1889   001CDA  6ADA               	clrf	fsr2h,c
  1890   001CDC  30DF               	rrcf	223,w,c
  1891   001CDE  32E8               	rrcf	wreg,f,c
  1892   001CE0  32E8               	rrcf	wreg,f,c
  1893   001CE2  0B07               	andlw	7
  1894   001CE4  6FAD               	movwf	??_gpio_pin_intialize& (0+255),b
  1895   001CE6  0E07               	movlw	7
  1896   001CE8  65AD               	cpfsgt	??_gpio_pin_intialize& (0+255),b
  1897   001CEA  EF79  F00E         	goto	u5251
  1898   001CEE  EF7B  F00E         	goto	u5250
  1899   001CF2                     u5251:
  1900   001CF2  EF7F  F00E         	goto	l6103
  1901   001CF6                     u5250:
  1902   001CF6                     l6101:
  1903                           
  1904                           ; BSR set to: 0
  1905                           ;MCAL_layer/GPIO/hal_gpio.c: 104:         ret = (Std_ReturnType)0x00;
  1906   001CF6  0E00               	movlw	0
  1907   001CF8  6FAE               	movwf	gpio_pin_intialize@ret& (0+255),b
  1908                           
  1909                           ;MCAL_layer/GPIO/hal_gpio.c: 105:     }
  1910   001CFA  EF92  F00E         	goto	l6105
  1911   001CFE                     l6103:
  1912                           
  1913                           ; BSR set to: 0
  1914                           ;MCAL_layer/GPIO/hal_gpio.c: 107:         ret = gpio_pin_direction_intialize(pin_config)
      +                          ;
  1915   001CFE  C0AC  F057         	movff	gpio_pin_intialize@pin_config,gpio_pin_direction_intialize@pin_config
  1916   001D02  ECB0  F00A         	call	_gpio_pin_direction_intialize	;wreg free
  1917   001D06  0100               	movlb	0	; () banked
  1918   001D08  6FAE               	movwf	gpio_pin_intialize@ret& (0+255),b
  1919                           
  1920                           ;MCAL_layer/GPIO/hal_gpio.c: 108:         ret = gpio_pin_write_logic(pin_config, pin_con
      +                          fig->logic);
  1921   001D0A  C0AC  F057         	movff	gpio_pin_intialize@pin_config,gpio_pin_write_logic@pin_config
  1922   001D0E  51AC               	movf	gpio_pin_intialize@pin_config& (0+255),w,b
  1923   001D10  6ED9               	movwf	fsr2l,c
  1924   001D12  6ADA               	clrf	fsr2h,c
  1925   001D14  0E00               	movlw	0
  1926   001D16  BEDF               	btfsc	indf2,7,c
  1927   001D18  0E01               	movlw	1
  1928   001D1A  6E58               	movwf	gpio_pin_write_logic@logic^0,c
  1929   001D1C  EC26  F00A         	call	_gpio_pin_write_logic	;wreg free
  1930   001D20  0100               	movlb	0	; () banked
  1931   001D22  6FAE               	movwf	gpio_pin_intialize@ret& (0+255),b
  1932   001D24                     l6105:
  1933                           
  1934                           ; BSR set to: 0
  1935                           ;MCAL_layer/GPIO/hal_gpio.c: 110:       return (ret);
  1936   001D24  51AE               	movf	gpio_pin_intialize@ret& (0+255),w,b
  1937   001D26                     
  1938                           ; BSR set to: 0
  1939   001D26  0012               	return		;funcret
  1940   001D28                     __end_of_gpio_pin_intialize:
  1941                           	callstack 0
  1942                           
  1943 ;; *************** function _gpio_pin_write_logic *****************
  1944 ;; Defined at:
  1945 ;;		line 52 in file "MCAL_layer/GPIO/hal_gpio.c"
  1946 ;; Parameters:    Size  Location     Type
  1947 ;;  pin_config      1   17[COMRAM] PTR const struct .
  1948 ;;		 -> lcd_2$LCD_data(8), lcd_2(10), lcd_1$LCD_data(4), lcd_1(6), 
  1949 ;;		 -> relay_turn_off@relay_obj(1), relay_turn_on@relay_obj(1), relay_intialization@relay_obj(1), led_turn_off@pin_obj(
      +1), 
  1950 ;;		 -> led_turn_on@pin_obj(1), led_intialization@pin_obj(1), 
  1951 ;;  logic           1   18[COMRAM] enum E2982
  1952 ;; Auto vars:     Size  Location     Type
  1953 ;;  ret             1    0[BANK0 ] unsigned char 
  1954 ;; Return value:  Size  Location     Type
  1955 ;;                  1    wreg      unsigned char 
  1956 ;; Registers used:
  1957 ;;		wreg, fsr2l, fsr2h, status,2, status,0, prodl, prodh
  1958 ;; Tracked objects:
  1959 ;;		On entry : 0/0
  1960 ;;		On exit  : 0/0
  1961 ;;		Unchanged: 0/0
  1962 ;; Data sizes:     COMRAM   BANK0   BANK1   BANK2   BANK3   BANK4   BANK5   BANK6   BANK7   BANK8   BANK9  BANK10  BANK1
      +1  BANK12  BANK13  BANK14  BANK15
  1963 ;;      Params:         2       0       0       0       0       0       0       0       0       0       0       0       
      +0       0       0       0       0
  1964 ;;      Locals:         0       1       0       0       0       0       0       0       0       0       0       0       
      +0       0       0       0       0
  1965 ;;      Temps:          5       0       0       0       0       0       0       0       0       0       0       0       
      +0       0       0       0       0
  1966 ;;      Totals:         7       1       0       0       0       0       0       0       0       0       0       0       
      +0       0       0       0       0
  1967 ;;Total ram usage:        8 bytes
  1968 ;; Hardware stack levels used: 1
  1969 ;; Hardware stack levels required when called: 5
  1970 ;; This function calls:
  1971 ;;		Nothing
  1972 ;; This function is called by:
  1973 ;;		_lcd_4bit_send_comand
  1974 ;;		_lcd_8bit_send_comand
  1975 ;;		_lcd_send_4_bits
  1976 ;;		_lcd_send_4_bits_enable_signal
  1977 ;;		_lcd_send_8_bits_enable_signal
  1978 ;;		_gpio_pin_intialize
  1979 ;;		_seven_segment_write_logic
  1980 ;;		_lcd_4bit_send_data
  1981 ;;		_lcd_8bit_send_data
  1982 ;;		_dc_motor_move_right
  1983 ;;		_dc_motor_move_left
  1984 ;;		_dc_motor_stop
  1985 ;;		_keybad_get_value
  1986 ;;		_led_turn_off
  1987 ;;		_relay_turn_on
  1988 ;;		_relay_turn_off
  1989 ;; This function uses a non-reentrant model
  1990 ;;
  1991                           
  1992                           	psect	text12
  1993   00144C                     __ptext12:
  1994                           	callstack 0
  1995   00144C                     _gpio_pin_write_logic:
  1996                           	callstack 23
  1997   00144C                     
  1998                           ;MCAL_layer/GPIO/hal_gpio.c: 53:     Std_ReturnType ret = (Std_ReturnType)0x01;
  1999   00144C  0E01               	movlw	1
  2000   00144E  0100               	movlb	0	; () banked
  2001   001450  6FAB               	movwf	gpio_pin_write_logic@ret& (0+255),b
  2002                           
  2003                           ;MCAL_layer/GPIO/hal_gpio.c: 54:     if((((void*)0)==pin_config)||((pin_config->pin)>8 -
      +                          1)){
  2004   001452  5057               	movf	gpio_pin_write_logic@pin_config^0,w,c
  2005   001454  B4D8               	btfsc	status,2,c
  2006   001456  EF2F  F00A         	goto	u5151
  2007   00145A  EF31  F00A         	goto	u5150
  2008   00145E                     u5151:
  2009   00145E  EF41  F00A         	goto	l6025
  2010   001462                     u5150:
  2011   001462                     
  2012                           ; BSR set to: 0
  2013   001462  5057               	movf	gpio_pin_write_logic@pin_config^0,w,c
  2014   001464  6ED9               	movwf	fsr2l,c
  2015   001466  6ADA               	clrf	fsr2h,c
  2016   001468  30DF               	rrcf	223,w,c
  2017   00146A  32E8               	rrcf	wreg,f,c
  2018   00146C  32E8               	rrcf	wreg,f,c
  2019   00146E  0B07               	andlw	7
  2020   001470  6E59               	movwf	??_gpio_pin_write_logic^0,c
  2021   001472  0E07               	movlw	7
  2022   001474  6459               	cpfsgt	??_gpio_pin_write_logic^0,c
  2023   001476  EF3F  F00A         	goto	u5161
  2024   00147A  EF41  F00A         	goto	u5160
  2025   00147E                     u5161:
  2026   00147E  EF98  F00A         	goto	l6033
  2027   001482                     u5160:
  2028   001482                     l6025:
  2029                           
  2030                           ; BSR set to: 0
  2031                           ;MCAL_layer/GPIO/hal_gpio.c: 55:         ret = (Std_ReturnType)0x00;
  2032   001482  0E00               	movlw	0
  2033   001484  6FAB               	movwf	gpio_pin_write_logic@ret& (0+255),b
  2034                           
  2035                           ;MCAL_layer/GPIO/hal_gpio.c: 56:     }
  2036   001486  EFAD  F00A         	goto	l6035
  2037   00148A                     l6027:
  2038                           
  2039                           ; BSR set to: 0
  2040                           ;MCAL_layer/GPIO/hal_gpio.c: 60:             (*lat_register[pin_config->port] &= ~((uint
      +                          8)1 << pin_config->pin));
  2041   00148A  5057               	movf	gpio_pin_write_logic@pin_config^0,w,c
  2042   00148C  6ED9               	movwf	fsr2l,c
  2043   00148E  6ADA               	clrf	fsr2h,c
  2044   001490  30DF               	rrcf	223,w,c
  2045   001492  32E8               	rrcf	wreg,f,c
  2046   001494  32E8               	rrcf	wreg,f,c
  2047   001496  0B07               	andlw	7
  2048   001498  6E59               	movwf	??_gpio_pin_write_logic^0,c
  2049   00149A  0E01               	movlw	1
  2050   00149C  6E5A               	movwf	(??_gpio_pin_write_logic+1)^0,c
  2051   00149E  2A59               	incf	??_gpio_pin_write_logic^0,f,c
  2052   0014A0  EF54  F00A         	goto	u5174
  2053   0014A4                     u5175:
  2054   0014A4  90D8               	bcf	status,0,c
  2055   0014A6  365A               	rlcf	(??_gpio_pin_write_logic+1)^0,f,c
  2056   0014A8                     u5174:
  2057   0014A8  2E59               	decfsz	??_gpio_pin_write_logic^0,f,c
  2058   0014AA  EF52  F00A         	goto	u5175
  2059   0014AE  505A               	movf	(??_gpio_pin_write_logic+1)^0,w,c
  2060   0014B0  0AFF               	xorlw	255
  2061   0014B2  6E5B               	movwf	(??_gpio_pin_write_logic+2)^0,c
  2062   0014B4  5057               	movf	gpio_pin_write_logic@pin_config^0,w,c
  2063   0014B6  6ED9               	movwf	fsr2l,c
  2064   0014B8  6ADA               	clrf	fsr2h,c
  2065   0014BA  50DF               	movf	223,w,c
  2066   0014BC  0B07               	andlw	7
  2067   0014BE  0D02               	mullw	2
  2068   0014C0  50F3               	movf	243,w,c
  2069   0014C2  0F5E               	addlw	low _lat_register
  2070   0014C4  6ED9               	movwf	fsr2l,c
  2071   0014C6  6ADA               	clrf	fsr2h,c
  2072   0014C8  CFDE F05C          	movff	postinc2,??_gpio_pin_write_logic+3
  2073   0014CC  CFDD F05D          	movff	postdec2,??_gpio_pin_write_logic+4
  2074   0014D0  C05C  FFD9         	movff	??_gpio_pin_write_logic+3,fsr2l
  2075   0014D4  C05D  FFDA         	movff	??_gpio_pin_write_logic+4,fsr2h
  2076   0014D8  505B               	movf	(??_gpio_pin_write_logic+2)^0,w,c
  2077   0014DA  16DF               	andwf	indf2,f,c
  2078                           
  2079                           ;MCAL_layer/GPIO/hal_gpio.c: 61:             break;
  2080   0014DC  EFAD  F00A         	goto	l6035
  2081   0014E0                     l6029:
  2082                           
  2083                           ; BSR set to: 0
  2084                           ;MCAL_layer/GPIO/hal_gpio.c: 64:             (*lat_register[pin_config->port] |=((uint8)
      +                          1 << pin_config->pin));
  2085   0014E0  5057               	movf	gpio_pin_write_logic@pin_config^0,w,c
  2086   0014E2  6ED9               	movwf	fsr2l,c
  2087   0014E4  6ADA               	clrf	fsr2h,c
  2088   0014E6  30DF               	rrcf	223,w,c
  2089   0014E8  32E8               	rrcf	wreg,f,c
  2090   0014EA  32E8               	rrcf	wreg,f,c
  2091   0014EC  0B07               	andlw	7
  2092   0014EE  6E59               	movwf	??_gpio_pin_write_logic^0,c
  2093   0014F0  0E01               	movlw	1
  2094   0014F2  6E5A               	movwf	(??_gpio_pin_write_logic+1)^0,c
  2095   0014F4  2A59               	incf	??_gpio_pin_write_logic^0,f,c
  2096   0014F6  EF7F  F00A         	goto	u5184
  2097   0014FA                     u5185:
  2098   0014FA  90D8               	bcf	status,0,c
  2099   0014FC  365A               	rlcf	(??_gpio_pin_write_logic+1)^0,f,c
  2100   0014FE                     u5184:
  2101   0014FE  2E59               	decfsz	??_gpio_pin_write_logic^0,f,c
  2102   001500  EF7D  F00A         	goto	u5185
  2103   001504  5057               	movf	gpio_pin_write_logic@pin_config^0,w,c
  2104   001506  6ED9               	movwf	fsr2l,c
  2105   001508  6ADA               	clrf	fsr2h,c
  2106   00150A  50DF               	movf	223,w,c
  2107   00150C  0B07               	andlw	7
  2108   00150E  0D02               	mullw	2
  2109   001510  50F3               	movf	243,w,c
  2110   001512  0F5E               	addlw	low _lat_register
  2111   001514  6ED9               	movwf	fsr2l,c
  2112   001516  6ADA               	clrf	fsr2h,c
  2113   001518  CFDE F05B          	movff	postinc2,??_gpio_pin_write_logic+2
  2114   00151C  CFDD F05C          	movff	postdec2,??_gpio_pin_write_logic+3
  2115   001520  C05B  FFD9         	movff	??_gpio_pin_write_logic+2,fsr2l
  2116   001524  C05C  FFDA         	movff	??_gpio_pin_write_logic+3,fsr2h
  2117   001528  505A               	movf	(??_gpio_pin_write_logic+1)^0,w,c
  2118   00152A  12DF               	iorwf	indf2,f,c
  2119                           
  2120                           ;MCAL_layer/GPIO/hal_gpio.c: 65:             break;
  2121   00152C  EFAD  F00A         	goto	l6035
  2122   001530                     l6033:
  2123                           
  2124                           ; BSR set to: 0
  2125   001530  5058               	movf	gpio_pin_write_logic@logic^0,w,c
  2126   001532  6E59               	movwf	??_gpio_pin_write_logic^0,c
  2127   001534  6A5A               	clrf	(??_gpio_pin_write_logic+1)^0,c
  2128                           
  2129                           ; Switch on 2 bytes has been partitioned into a top level switch of size 1, and 1 sub-sw
      +                          itches
  2130                           ; Switch size 1, requested type "simple"
  2131                           ; Number of cases is 1, Range of values is 0 to 0
  2132                           ; switch strategies available:
  2133                           ; Name         Instructions Cycles
  2134                           ; simple_byte            4     3 (average)
  2135                           ;	Chosen strategy is simple_byte
  2136   001536  505A               	movf	(??_gpio_pin_write_logic+1)^0,w,c
  2137   001538  0A00               	xorlw	0	; case 0
  2138   00153A  B4D8               	btfsc	status,2,c
  2139   00153C  EFA2  F00A         	goto	l7001
  2140   001540  EF41  F00A         	goto	l6025
  2141   001544                     l7001:
  2142                           
  2143                           ; BSR set to: 0
  2144                           ; Switch size 1, requested type "simple"
  2145                           ; Number of cases is 2, Range of values is 0 to 1
  2146                           ; switch strategies available:
  2147                           ; Name         Instructions Cycles
  2148                           ; simple_byte            7     4 (average)
  2149                           ;	Chosen strategy is simple_byte
  2150   001544  5059               	movf	??_gpio_pin_write_logic^0,w,c
  2151   001546  0A00               	xorlw	0	; case 0
  2152   001548  B4D8               	btfsc	status,2,c
  2153   00154A  EF45  F00A         	goto	l6027
  2154   00154E  0A01               	xorlw	1	; case 1
  2155   001550  B4D8               	btfsc	status,2,c
  2156   001552  EF70  F00A         	goto	l6029
  2157   001556  EF41  F00A         	goto	l6025
  2158   00155A                     l6035:
  2159                           
  2160                           ;MCAL_layer/GPIO/hal_gpio.c: 70:       return (ret);
  2161   00155A  0100               	movlb	0	; () banked
  2162   00155C  51AB               	movf	gpio_pin_write_logic@ret& (0+255),w,b
  2163   00155E                     
  2164                           ; BSR set to: 0
  2165   00155E  0012               	return		;funcret
  2166   001560                     __end_of_gpio_pin_write_logic:
  2167                           	callstack 0
  2168                           
  2169 ;; *************** function _gpio_pin_direction_intialize *****************
  2170 ;; Defined at:
  2171 ;;		line 15 in file "MCAL_layer/GPIO/hal_gpio.c"
  2172 ;; Parameters:    Size  Location     Type
  2173 ;;  pin_config      1   17[COMRAM] PTR const struct .
  2174 ;;		 -> lcd_2$LCD_data(8), lcd_2(10), lcd_1$LCD_data(4), lcd_1(6), 
  2175 ;;		 -> relay_intialization@relay_obj(1), led_intialization@pin_obj(1), 
  2176 ;; Auto vars:     Size  Location     Type
  2177 ;;  ret             1   23[COMRAM] unsigned char 
  2178 ;; Return value:  Size  Location     Type
  2179 ;;                  1    wreg      unsigned char 
  2180 ;; Registers used:
  2181 ;;		wreg, fsr2l, fsr2h, status,2, status,0, prodl, prodh
  2182 ;; Tracked objects:
  2183 ;;		On entry : 0/0
  2184 ;;		On exit  : 0/0
  2185 ;;		Unchanged: 0/0
  2186 ;; Data sizes:     COMRAM   BANK0   BANK1   BANK2   BANK3   BANK4   BANK5   BANK6   BANK7   BANK8   BANK9  BANK10  BANK1
      +1  BANK12  BANK13  BANK14  BANK15
  2187 ;;      Params:         1       0       0       0       0       0       0       0       0       0       0       0       
      +0       0       0       0       0
  2188 ;;      Locals:         1       0       0       0       0       0       0       0       0       0       0       0       
      +0       0       0       0       0
  2189 ;;      Temps:          5       0       0       0       0       0       0       0       0       0       0       0       
      +0       0       0       0       0
  2190 ;;      Totals:         7       0       0       0       0       0       0       0       0       0       0       0       
      +0       0       0       0       0
  2191 ;;Total ram usage:        7 bytes
  2192 ;; Hardware stack levels used: 1
  2193 ;; Hardware stack levels required when called: 5
  2194 ;; This function calls:
  2195 ;;		Nothing
  2196 ;; This function is called by:
  2197 ;;		_gpio_pin_intialize
  2198 ;;		_button_intialization
  2199 ;;		_keybad_intialization
  2200 ;;		_Interrupt_RBx_Init
  2201 ;;		_interrupt_INTx_Pin_Init
  2202 ;; This function uses a non-reentrant model
  2203 ;;
  2204                           
  2205                           	psect	text13
  2206   001560                     __ptext13:
  2207                           	callstack 0
  2208   001560                     _gpio_pin_direction_intialize:
  2209                           	callstack 23
  2210   001560                     
  2211                           ;MCAL_layer/GPIO/hal_gpio.c: 16:     Std_ReturnType ret = (Std_ReturnType)0x01;
  2212   001560  0E01               	movlw	1
  2213   001562  6E5D               	movwf	gpio_pin_direction_intialize@ret^0,c
  2214                           
  2215                           ;MCAL_layer/GPIO/hal_gpio.c: 17:     if((((void*)0)==pin_config)|| ((pin_config->pin)>8 
      +                          -1)){
  2216   001564  5057               	movf	gpio_pin_direction_intialize@pin_config^0,w,c
  2217   001566  B4D8               	btfsc	status,2,c
  2218   001568  EFB8  F00A         	goto	u5191
  2219   00156C  EFBA  F00A         	goto	u5190
  2220   001570                     u5191:
  2221   001570  EFCA  F00A         	goto	l6047
  2222   001574                     u5190:
  2223   001574  5057               	movf	gpio_pin_direction_intialize@pin_config^0,w,c
  2224   001576  6ED9               	movwf	fsr2l,c
  2225   001578  6ADA               	clrf	fsr2h,c
  2226   00157A  30DF               	rrcf	223,w,c
  2227   00157C  32E8               	rrcf	wreg,f,c
  2228   00157E  32E8               	rrcf	wreg,f,c
  2229   001580  0B07               	andlw	7
  2230   001582  6E58               	movwf	??_gpio_pin_direction_intialize^0,c
  2231   001584  0E07               	movlw	7
  2232   001586  6458               	cpfsgt	??_gpio_pin_direction_intialize^0,c
  2233   001588  EFC8  F00A         	goto	u5201
  2234   00158C  EFCA  F00A         	goto	u5200
  2235   001590                     u5201:
  2236   001590  EF21  F00B         	goto	l6055
  2237   001594                     u5200:
  2238   001594                     l6047:
  2239                           
  2240                           ;MCAL_layer/GPIO/hal_gpio.c: 18:         ret = (Std_ReturnType)0x00;
  2241   001594  0E00               	movlw	0
  2242   001596  6E5D               	movwf	gpio_pin_direction_intialize@ret^0,c
  2243                           
  2244                           ;MCAL_layer/GPIO/hal_gpio.c: 19:     }
  2245   001598  EF37  F00B         	goto	l6057
  2246   00159C                     l6049:
  2247                           
  2248                           ;MCAL_layer/GPIO/hal_gpio.c: 23:             (*tris_register[pin_config->port] &= ~((uin
      +                          t8)1 << pin_config->pin));
  2249   00159C  5057               	movf	gpio_pin_direction_intialize@pin_config^0,w,c
  2250   00159E  6ED9               	movwf	fsr2l,c
  2251   0015A0  6ADA               	clrf	fsr2h,c
  2252   0015A2  30DF               	rrcf	223,w,c
  2253   0015A4  32E8               	rrcf	wreg,f,c
  2254   0015A6  32E8               	rrcf	wreg,f,c
  2255   0015A8  0B07               	andlw	7
  2256   0015AA  6E58               	movwf	??_gpio_pin_direction_intialize^0,c
  2257   0015AC  0E01               	movlw	1
  2258   0015AE  6E59               	movwf	(??_gpio_pin_direction_intialize+1)^0,c
  2259   0015B0  2A58               	incf	??_gpio_pin_direction_intialize^0,f,c
  2260   0015B2  EFDD  F00A         	goto	u5214
  2261   0015B6                     u5215:
  2262   0015B6  90D8               	bcf	status,0,c
  2263   0015B8  3659               	rlcf	(??_gpio_pin_direction_intialize+1)^0,f,c
  2264   0015BA                     u5214:
  2265   0015BA  2E58               	decfsz	??_gpio_pin_direction_intialize^0,f,c
  2266   0015BC  EFDB  F00A         	goto	u5215
  2267   0015C0  5059               	movf	(??_gpio_pin_direction_intialize+1)^0,w,c
  2268   0015C2  0AFF               	xorlw	255
  2269   0015C4  6E5A               	movwf	(??_gpio_pin_direction_intialize+2)^0,c
  2270   0015C6  5057               	movf	gpio_pin_direction_intialize@pin_config^0,w,c
  2271   0015C8  6ED9               	movwf	fsr2l,c
  2272   0015CA  6ADA               	clrf	fsr2h,c
  2273   0015CC  50DF               	movf	223,w,c
  2274   0015CE  0B07               	andlw	7
  2275   0015D0  0D02               	mullw	2
  2276   0015D2  50F3               	movf	243,w,c
  2277   0015D4  0F8A               	addlw	low _tris_register
  2278   0015D6  6ED9               	movwf	fsr2l,c
  2279   0015D8  6ADA               	clrf	fsr2h,c
  2280   0015DA  CFDE F05B          	movff	postinc2,??_gpio_pin_direction_intialize+3
  2281   0015DE  CFDD F05C          	movff	postdec2,??_gpio_pin_direction_intialize+4
  2282   0015E2  C05B  FFD9         	movff	??_gpio_pin_direction_intialize+3,fsr2l
  2283   0015E6  C05C  FFDA         	movff	??_gpio_pin_direction_intialize+4,fsr2h
  2284   0015EA  505A               	movf	(??_gpio_pin_direction_intialize+2)^0,w,c
  2285   0015EC  16DF               	andwf	indf2,f,c
  2286                           
  2287                           ;MCAL_layer/GPIO/hal_gpio.c: 24:             break;
  2288   0015EE  EF37  F00B         	goto	l6057
  2289   0015F2                     l6051:
  2290                           
  2291                           ;MCAL_layer/GPIO/hal_gpio.c: 27:             (*tris_register[pin_config->port] |=((uint8
      +                          )1 << pin_config->pin));
  2292   0015F2  5057               	movf	gpio_pin_direction_intialize@pin_config^0,w,c
  2293   0015F4  6ED9               	movwf	fsr2l,c
  2294   0015F6  6ADA               	clrf	fsr2h,c
  2295   0015F8  30DF               	rrcf	223,w,c
  2296   0015FA  32E8               	rrcf	wreg,f,c
  2297   0015FC  32E8               	rrcf	wreg,f,c
  2298   0015FE  0B07               	andlw	7
  2299   001600  6E58               	movwf	??_gpio_pin_direction_intialize^0,c
  2300   001602  0E01               	movlw	1
  2301   001604  6E59               	movwf	(??_gpio_pin_direction_intialize+1)^0,c
  2302   001606  2A58               	incf	??_gpio_pin_direction_intialize^0,f,c
  2303   001608  EF08  F00B         	goto	u5224
  2304   00160C                     u5225:
  2305   00160C  90D8               	bcf	status,0,c
  2306   00160E  3659               	rlcf	(??_gpio_pin_direction_intialize+1)^0,f,c
  2307   001610                     u5224:
  2308   001610  2E58               	decfsz	??_gpio_pin_direction_intialize^0,f,c
  2309   001612  EF06  F00B         	goto	u5225
  2310   001616  5057               	movf	gpio_pin_direction_intialize@pin_config^0,w,c
  2311   001618  6ED9               	movwf	fsr2l,c
  2312   00161A  6ADA               	clrf	fsr2h,c
  2313   00161C  50DF               	movf	223,w,c
  2314   00161E  0B07               	andlw	7
  2315   001620  0D02               	mullw	2
  2316   001622  50F3               	movf	243,w,c
  2317   001624  0F8A               	addlw	low _tris_register
  2318   001626  6ED9               	movwf	fsr2l,c
  2319   001628  6ADA               	clrf	fsr2h,c
  2320   00162A  CFDE F05A          	movff	postinc2,??_gpio_pin_direction_intialize+2
  2321   00162E  CFDD F05B          	movff	postdec2,??_gpio_pin_direction_intialize+3
  2322   001632  C05A  FFD9         	movff	??_gpio_pin_direction_intialize+2,fsr2l
  2323   001636  C05B  FFDA         	movff	??_gpio_pin_direction_intialize+3,fsr2h
  2324   00163A  5059               	movf	(??_gpio_pin_direction_intialize+1)^0,w,c
  2325   00163C  12DF               	iorwf	indf2,f,c
  2326                           
  2327                           ;MCAL_layer/GPIO/hal_gpio.c: 29:             break;
  2328   00163E  EF37  F00B         	goto	l6057
  2329   001642                     l6055:
  2330   001642  5057               	movf	gpio_pin_direction_intialize@pin_config^0,w,c
  2331   001644  6ED9               	movwf	fsr2l,c
  2332   001646  6ADA               	clrf	fsr2h,c
  2333   001648  BCDF               	btfsc	indf2,6,c
  2334   00164A  EF29  F00B         	goto	u5231
  2335   00164E  EF2C  F00B         	goto	u5230
  2336   001652                     u5231:
  2337   001652  0E01               	movlw	1
  2338   001654  EF2D  F00B         	goto	u5236
  2339   001658                     u5230:
  2340   001658  0E00               	movlw	0
  2341   00165A                     u5236:
  2342                           
  2343                           ; Switch size 1, requested type "simple"
  2344                           ; Number of cases is 2, Range of values is 0 to 1
  2345                           ; switch strategies available:
  2346                           ; Name         Instructions Cycles
  2347                           ; simple_byte            7     4 (average)
  2348                           ;	Chosen strategy is simple_byte
  2349   00165A  0A00               	xorlw	0	; case 0
  2350   00165C  B4D8               	btfsc	status,2,c
  2351   00165E  EFCE  F00A         	goto	l6049
  2352   001662  0A01               	xorlw	1	; case 1
  2353   001664  B4D8               	btfsc	status,2,c
  2354   001666  EFF9  F00A         	goto	l6051
  2355   00166A  EFCA  F00A         	goto	l6047
  2356   00166E                     l6057:
  2357                           
  2358                           ;MCAL_layer/GPIO/hal_gpio.c: 34:     return (ret);
  2359   00166E  505D               	movf	gpio_pin_direction_intialize@ret^0,w,c
  2360   001670  0012               	return		;funcret
  2361   001672                     __end_of_gpio_pin_direction_intialize:
  2362                           	callstack 0
  2363                           
  2364 ;; *************** function _TIMER0_Init *****************
  2365 ;; Defined at:
  2366 ;;		line 19 in file "MCAL_layer/TIMER/hal_timer0.c"
  2367 ;; Parameters:    Size  Location     Type
  2368 ;;  _timer          1   19[COMRAM] PTR const struct .
  2369 ;;		 -> timer_obj(7), 
  2370 ;; Auto vars:     Size  Location     Type
  2371 ;;  ret             1   22[COMRAM] unsigned char 
  2372 ;; Return value:  Size  Location     Type
  2373 ;;                  1    wreg      unsigned char 
  2374 ;; Registers used:
  2375 ;;		wreg, fsr2l, fsr2h, status,2, status,0, cstack
  2376 ;; Tracked objects:
  2377 ;;		On entry : 0/0
  2378 ;;		On exit  : 0/0
  2379 ;;		Unchanged: 0/0
  2380 ;; Data sizes:     COMRAM   BANK0   BANK1   BANK2   BANK3   BANK4   BANK5   BANK6   BANK7   BANK8   BANK9  BANK10  BANK1
      +1  BANK12  BANK13  BANK14  BANK15
  2381 ;;      Params:         1       0       0       0       0       0       0       0       0       0       0       0       
      +0       0       0       0       0
  2382 ;;      Locals:         1       0       0       0       0       0       0       0       0       0       0       0       
      +0       0       0       0       0
  2383 ;;      Temps:          2       0       0       0       0       0       0       0       0       0       0       0       
      +0       0       0       0       0
  2384 ;;      Totals:         4       0       0       0       0       0       0       0       0       0       0       0       
      +0       0       0       0       0
  2385 ;;Total ram usage:        4 bytes
  2386 ;; Hardware stack levels used: 1
  2387 ;; Hardware stack levels required when called: 6
  2388 ;; This function calls:
  2389 ;;		_TIMER0_MODE_Select
  2390 ;;		_TIMER0_Prescaler_config
  2391 ;;		_TIMER0_REGISTSER_SIZE_config
  2392 ;; This function is called by:
  2393 ;;		_main
  2394 ;; This function uses a non-reentrant model
  2395 ;;
  2396                           
  2397                           	psect	text14
  2398   001996                     __ptext14:
  2399                           	callstack 0
  2400   001996                     _TIMER0_Init:
  2401                           	callstack 24
  2402   001996                     
  2403                           ;MCAL_layer/TIMER/hal_timer0.c: 20:     Std_ReturnType ret = (Std_ReturnType)0x01;
  2404   001996  0E01               	movlw	1
  2405   001998  6E5C               	movwf	TIMER0_Init@ret^0,c
  2406                           
  2407                           ;MCAL_layer/TIMER/hal_timer0.c: 22:      if(((void*)0) == _timer){
  2408   00199A  5059               	movf	TIMER0_Init@_timer^0,w,c
  2409   00199C  A4D8               	btfss	status,2,c
  2410   00199E  EFD3  F00C         	goto	u3801
  2411   0019A2  EFD5  F00C         	goto	u3800
  2412   0019A6                     u3801:
  2413   0019A6  EFD9  F00C         	goto	l1164
  2414   0019AA                     u3800:
  2415   0019AA                     
  2416                           ;MCAL_layer/TIMER/hal_timer0.c: 23:          ret= (Std_ReturnType)0x00;
  2417   0019AA  0E00               	movlw	0
  2418   0019AC  6E5C               	movwf	TIMER0_Init@ret^0,c
  2419                           
  2420                           ;MCAL_layer/TIMER/hal_timer0.c: 24:      }
  2421   0019AE  EF10  F00D         	goto	l5267
  2422   0019B2                     l1164:
  2423                           
  2424                           ;MCAL_layer/TIMER/hal_timer0.c: 27:         (T0CONbits.TMR0ON = 0);
  2425   0019B2  9ED5               	bcf	213,7,c	;volatile
  2426   0019B4                     
  2427                           ;MCAL_layer/TIMER/hal_timer0.c: 29:         TIMER0_Prescaler_config(_timer);
  2428   0019B4  C059  F057         	movff	TIMER0_Init@_timer,TIMER0_Prescaler_config@_timer
  2429   0019B8  ECC1  F00E         	call	_TIMER0_Prescaler_config	;wreg free
  2430                           
  2431                           ;MCAL_layer/TIMER/hal_timer0.c: 30:         TIMER0_MODE_Select(_timer);
  2432   0019BC  C059  F057         	movff	TIMER0_Init@_timer,TIMER0_MODE_Select@_timer
  2433   0019C0  EC52  F00D         	call	_TIMER0_MODE_Select	;wreg free
  2434                           
  2435                           ;MCAL_layer/TIMER/hal_timer0.c: 31:         TIMER0_REGISTSER_SIZE_config(_timer);
  2436   0019C4  C059  F057         	movff	TIMER0_Init@_timer,TIMER0_REGISTSER_SIZE_config@_timer
  2437   0019C8  ECEA  F00E         	call	_TIMER0_REGISTSER_SIZE_config	;wreg free
  2438   0019CC                     
  2439                           ;MCAL_layer/TIMER/hal_timer0.c: 32:         TMR0H = (_timer->timer0_preload_value) >> 8;
  2440   0019CC  5059               	movf	TIMER0_Init@_timer^0,w,c
  2441   0019CE  6ED9               	movwf	fsr2l,c
  2442   0019D0  6ADA               	clrf	fsr2h,c
  2443   0019D2  0E04               	movlw	4
  2444   0019D4  26D9               	addwf	fsr2l,f,c
  2445   0019D6  CFDE F05A          	movff	postinc2,??_TIMER0_Init
  2446   0019DA  CFDD F05B          	movff	postdec2,??_TIMER0_Init+1
  2447   0019DE  C05B  F05A         	movff	??_TIMER0_Init+1,??_TIMER0_Init
  2448   0019E2  6A5B               	clrf	(??_TIMER0_Init+1)^0,c
  2449   0019E4  505A               	movf	??_TIMER0_Init^0,w,c
  2450   0019E6  6ED7               	movwf	215,c	;volatile
  2451   0019E8                     
  2452                           ;MCAL_layer/TIMER/hal_timer0.c: 33:         TMR0L = (uint8)(_timer->timer0_preload_value
      +                          );
  2453   0019E8  5059               	movf	TIMER0_Init@_timer^0,w,c
  2454   0019EA  6ED9               	movwf	fsr2l,c
  2455   0019EC  6ADA               	clrf	fsr2h,c
  2456   0019EE  0E04               	movlw	4
  2457   0019F0  26D9               	addwf	fsr2l,f,c
  2458   0019F2  50DF               	movf	indf2,w,c
  2459   0019F4  6ED6               	movwf	214,c	;volatile
  2460   0019F6                     
  2461                           ;MCAL_layer/TIMER/hal_timer0.c: 34:         timer0_preload = _timer->timer0_preload_valu
      +                          e;
  2462   0019F6  5059               	movf	TIMER0_Init@_timer^0,w,c
  2463   0019F8  6ED9               	movwf	fsr2l,c
  2464   0019FA  6ADA               	clrf	fsr2h,c
  2465   0019FC  0E04               	movlw	4
  2466   0019FE  26D9               	addwf	fsr2l,f,c
  2467   001A00  CFDE F019          	movff	postinc2,_timer0_preload
  2468   001A04  CFDD F01A          	movff	postdec2,_timer0_preload+1
  2469   001A08                     
  2470                           ;MCAL_layer/TIMER/hal_timer0.c: 38:             (INTCONbits.TMR0IE = 1);
  2471   001A08  8AF2               	bsf	242,5,c	;volatile
  2472   001A0A                     
  2473                           ;MCAL_layer/TIMER/hal_timer0.c: 39:             (INTCONbits.TMR0IF = 0);
  2474   001A0A  94F2               	bcf	242,2,c	;volatile
  2475   001A0C                     
  2476                           ;MCAL_layer/TIMER/hal_timer0.c: 40:             TIMER0_InterruptHandler = _timer->TIMER0
      +                          _InterruptHandler;
  2477   001A0C  5059               	movf	TIMER0_Init@_timer^0,w,c
  2478   001A0E  6ED9               	movwf	fsr2l,c
  2479   001A10  6ADA               	clrf	fsr2h,c
  2480   001A12  CFDE F01B          	movff	postinc2,_TIMER0_InterruptHandler
  2481   001A16  CFDD F01C          	movff	postdec2,_TIMER0_InterruptHandler+1
  2482   001A1A                     
  2483                           ;MCAL_layer/TIMER/hal_timer0.c: 56:             (INTCONbits.GIE = 1);
  2484   001A1A  8EF2               	bsf	242,7,c	;volatile
  2485   001A1C                     
  2486                           ;MCAL_layer/TIMER/hal_timer0.c: 57:             (INTCONbits.PEIE = 1);
  2487   001A1C  8CF2               	bsf	242,6,c	;volatile
  2488   001A1E                     
  2489                           ;MCAL_layer/TIMER/hal_timer0.c: 62:          (T0CONbits.TMR0ON = 1);
  2490   001A1E  8ED5               	bsf	213,7,c	;volatile
  2491   001A20                     l5267:
  2492                           
  2493                           ;MCAL_layer/TIMER/hal_timer0.c: 64:      return(ret);
  2494   001A20  505C               	movf	TIMER0_Init@ret^0,w,c
  2495   001A22  0012               	return		;funcret
  2496   001A24                     __end_of_TIMER0_Init:
  2497                           	callstack 0
  2498                           
  2499 ;; *************** function _TIMER0_REGISTSER_SIZE_config *****************
  2500 ;; Defined at:
  2501 ;;		line 149 in file "MCAL_layer/TIMER/hal_timer0.c"
  2502 ;; Parameters:    Size  Location     Type
  2503 ;;  _timer          1   17[COMRAM] PTR const struct .
  2504 ;;		 -> timer_obj(7), 
  2505 ;; Auto vars:     Size  Location     Type
  2506 ;;		None
  2507 ;; Return value:  Size  Location     Type
  2508 ;;                  1    wreg      void 
  2509 ;; Registers used:
  2510 ;;		wreg, fsr2l, fsr2h, status,2, status,0
  2511 ;; Tracked objects:
  2512 ;;		On entry : 0/0
  2513 ;;		On exit  : 0/0
  2514 ;;		Unchanged: 0/0
  2515 ;; Data sizes:     COMRAM   BANK0   BANK1   BANK2   BANK3   BANK4   BANK5   BANK6   BANK7   BANK8   BANK9  BANK10  BANK1
      +1  BANK12  BANK13  BANK14  BANK15
  2516 ;;      Params:         1       0       0       0       0       0       0       0       0       0       0       0       
      +0       0       0       0       0
  2517 ;;      Locals:         0       0       0       0       0       0       0       0       0       0       0       0       
      +0       0       0       0       0
  2518 ;;      Temps:          0       0       0       0       0       0       0       0       0       0       0       0       
      +0       0       0       0       0
  2519 ;;      Totals:         1       0       0       0       0       0       0       0       0       0       0       0       
      +0       0       0       0       0
  2520 ;;Total ram usage:        1 bytes
  2521 ;; Hardware stack levels used: 1
  2522 ;; Hardware stack levels required when called: 5
  2523 ;; This function calls:
  2524 ;;		Nothing
  2525 ;; This function is called by:
  2526 ;;		_TIMER0_Init
  2527 ;; This function uses a non-reentrant model
  2528 ;;
  2529                           
  2530                           	psect	text15
  2531   001DD4                     __ptext15:
  2532                           	callstack 0
  2533   001DD4                     _TIMER0_REGISTSER_SIZE_config:
  2534                           	callstack 24
  2535   001DD4                     
  2536                           ;MCAL_layer/TIMER/hal_timer0.c: 150:     if(1 == _timer->timer0_register_size){
  2537   001DD4  5057               	movf	TIMER0_REGISTSER_SIZE_config@_timer^0,w,c
  2538   001DD6  6ED9               	movwf	fsr2l,c
  2539   001DD8  6ADA               	clrf	fsr2h,c
  2540   001DDA  0E06               	movlw	6
  2541   001DDC  26D9               	addwf	fsr2l,f,c
  2542   001DDE  A6DF               	btfss	indf2,3,c
  2543   001DE0  EFF4  F00E         	goto	u3721
  2544   001DE4  EFF6  F00E         	goto	u3720
  2545   001DE8                     u3721:
  2546   001DE8  EFF9  F00E         	goto	l5185
  2547   001DEC                     u3720:
  2548   001DEC                     
  2549                           ;MCAL_layer/TIMER/hal_timer0.c: 151:        (T0CONbits.T08BIT = 1);
  2550   001DEC  8CD5               	bsf	213,6,c	;volatile
  2551                           
  2552                           ;MCAL_layer/TIMER/hal_timer0.c: 152:     }
  2553   001DEE  EF06  F00F         	goto	l1212
  2554   001DF2                     l5185:
  2555   001DF2  5057               	movf	TIMER0_REGISTSER_SIZE_config@_timer^0,w,c
  2556   001DF4  6ED9               	movwf	fsr2l,c
  2557   001DF6  6ADA               	clrf	fsr2h,c
  2558   001DF8  0E06               	movlw	6
  2559   001DFA  26D9               	addwf	fsr2l,f,c
  2560   001DFC  B6DF               	btfsc	indf2,3,c
  2561   001DFE  EF03  F00F         	goto	u3731
  2562   001E02  EF05  F00F         	goto	u3730
  2563   001E06                     u3731:
  2564   001E06  EF06  F00F         	goto	l1212
  2565   001E0A                     u3730:
  2566   001E0A                     
  2567                           ;MCAL_layer/TIMER/hal_timer0.c: 154:         (T0CONbits.T08BIT = 0);
  2568   001E0A  9CD5               	bcf	213,6,c	;volatile
  2569   001E0C                     l1212:
  2570   001E0C  0012               	return		;funcret
  2571   001E0E                     __end_of_TIMER0_REGISTSER_SIZE_config:
  2572                           	callstack 0
  2573                           
  2574 ;; *************** function _TIMER0_Prescaler_config *****************
  2575 ;; Defined at:
  2576 ;;		line 117 in file "MCAL_layer/TIMER/hal_timer0.c"
  2577 ;; Parameters:    Size  Location     Type
  2578 ;;  _timer          1   17[COMRAM] PTR const struct .
  2579 ;;		 -> timer_obj(7), 
  2580 ;; Auto vars:     Size  Location     Type
  2581 ;;		None
  2582 ;; Return value:  Size  Location     Type
  2583 ;;                  1    wreg      void 
  2584 ;; Registers used:
  2585 ;;		wreg, fsr2l, fsr2h, status,2, status,0
  2586 ;; Tracked objects:
  2587 ;;		On entry : 0/0
  2588 ;;		On exit  : 0/0
  2589 ;;		Unchanged: 0/0
  2590 ;; Data sizes:     COMRAM   BANK0   BANK1   BANK2   BANK3   BANK4   BANK5   BANK6   BANK7   BANK8   BANK9  BANK10  BANK1
      +1  BANK12  BANK13  BANK14  BANK15
  2591 ;;      Params:         1       0       0       0       0       0       0       0       0       0       0       0       
      +0       0       0       0       0
  2592 ;;      Locals:         0       0       0       0       0       0       0       0       0       0       0       0       
      +0       0       0       0       0
  2593 ;;      Temps:          1       0       0       0       0       0       0       0       0       0       0       0       
      +0       0       0       0       0
  2594 ;;      Totals:         2       0       0       0       0       0       0       0       0       0       0       0       
      +0       0       0       0       0
  2595 ;;Total ram usage:        2 bytes
  2596 ;; Hardware stack levels used: 1
  2597 ;; Hardware stack levels required when called: 5
  2598 ;; This function calls:
  2599 ;;		Nothing
  2600 ;; This function is called by:
  2601 ;;		_TIMER0_Init
  2602 ;; This function uses a non-reentrant model
  2603 ;;
  2604                           
  2605                           	psect	text16
  2606   001D82                     __ptext16:
  2607                           	callstack 0
  2608   001D82                     _TIMER0_Prescaler_config:
  2609                           	callstack 24
  2610   001D82                     
  2611                           ;MCAL_layer/TIMER/hal_timer0.c: 118:     if(1 == _timer->prescaler_enable){
  2612   001D82  5057               	movf	TIMER0_Prescaler_config@_timer^0,w,c
  2613   001D84  6ED9               	movwf	fsr2l,c
  2614   001D86  6ADA               	clrf	fsr2h,c
  2615   001D88  0E06               	movlw	6
  2616   001D8A  26D9               	addwf	fsr2l,f,c
  2617   001D8C  A0DF               	btfss	indf2,0,c
  2618   001D8E  EFCB  F00E         	goto	u3661
  2619   001D92  EFCD  F00E         	goto	u3660
  2620   001D96                     u3661:
  2621   001D96  EFDC  F00E         	goto	l5161
  2622   001D9A                     u3660:
  2623   001D9A                     
  2624                           ;MCAL_layer/TIMER/hal_timer0.c: 119:         (T0CONbits.PSA = 0);
  2625   001D9A  96D5               	bcf	213,3,c	;volatile
  2626   001D9C                     
  2627                           ;MCAL_layer/TIMER/hal_timer0.c: 120:         T0CONbits.T0PS = _timer->prescaler_value;
  2628   001D9C  5057               	movf	TIMER0_Prescaler_config@_timer^0,w,c
  2629   001D9E  6ED9               	movwf	fsr2l,c
  2630   001DA0  6ADA               	clrf	fsr2h,c
  2631   001DA2  0E03               	movlw	3
  2632   001DA4  26D9               	addwf	fsr2l,f,c
  2633   001DA6  50DF               	movf	indf2,w,c
  2634   001DA8  6E58               	movwf	??_TIMER0_Prescaler_config^0,c
  2635   001DAA  50D5               	movf	213,w,c	;volatile
  2636   001DAC  1858               	xorwf	??_TIMER0_Prescaler_config^0,w,c
  2637   001DAE  0BF8               	andlw	-8
  2638   001DB0  1858               	xorwf	??_TIMER0_Prescaler_config^0,w,c
  2639   001DB2  6ED5               	movwf	213,c	;volatile
  2640                           
  2641                           ;MCAL_layer/TIMER/hal_timer0.c: 121:     }
  2642   001DB4  EFE9  F00E         	goto	l1194
  2643   001DB8                     l5161:
  2644   001DB8  5057               	movf	TIMER0_Prescaler_config@_timer^0,w,c
  2645   001DBA  6ED9               	movwf	fsr2l,c
  2646   001DBC  6ADA               	clrf	fsr2h,c
  2647   001DBE  0E06               	movlw	6
  2648   001DC0  26D9               	addwf	fsr2l,f,c
  2649   001DC2  B0DF               	btfsc	indf2,0,c
  2650   001DC4  EFE6  F00E         	goto	u3671
  2651   001DC8  EFE8  F00E         	goto	u3670
  2652   001DCC                     u3671:
  2653   001DCC  EFE9  F00E         	goto	l1194
  2654   001DD0                     u3670:
  2655   001DD0                     
  2656                           ;MCAL_layer/TIMER/hal_timer0.c: 123:         (T0CONbits.PSA = 1);
  2657   001DD0  86D5               	bsf	213,3,c	;volatile
  2658   001DD2                     l1194:
  2659   001DD2  0012               	return		;funcret
  2660   001DD4                     __end_of_TIMER0_Prescaler_config:
  2661                           	callstack 0
  2662                           
  2663 ;; *************** function _TIMER0_MODE_Select *****************
  2664 ;; Defined at:
  2665 ;;		line 129 in file "MCAL_layer/TIMER/hal_timer0.c"
  2666 ;; Parameters:    Size  Location     Type
  2667 ;;  _timer          1   17[COMRAM] PTR const struct .
  2668 ;;		 -> timer_obj(7), 
  2669 ;; Auto vars:     Size  Location     Type
  2670 ;;		None
  2671 ;; Return value:  Size  Location     Type
  2672 ;;                  1    wreg      void 
  2673 ;; Registers used:
  2674 ;;		wreg, fsr2l, fsr2h, status,2, status,0
  2675 ;; Tracked objects:
  2676 ;;		On entry : 0/0
  2677 ;;		On exit  : 0/0
  2678 ;;		Unchanged: 0/0
  2679 ;; Data sizes:     COMRAM   BANK0   BANK1   BANK2   BANK3   BANK4   BANK5   BANK6   BANK7   BANK8   BANK9  BANK10  BANK1
      +1  BANK12  BANK13  BANK14  BANK15
  2680 ;;      Params:         1       0       0       0       0       0       0       0       0       0       0       0       
      +0       0       0       0       0
  2681 ;;      Locals:         0       0       0       0       0       0       0       0       0       0       0       0       
      +0       0       0       0       0
  2682 ;;      Temps:          0       0       0       0       0       0       0       0       0       0       0       0       
      +0       0       0       0       0
  2683 ;;      Totals:         1       0       0       0       0       0       0       0       0       0       0       0       
      +0       0       0       0       0
  2684 ;;Total ram usage:        1 bytes
  2685 ;; Hardware stack levels used: 1
  2686 ;; Hardware stack levels required when called: 5
  2687 ;; This function calls:
  2688 ;;		Nothing
  2689 ;; This function is called by:
  2690 ;;		_TIMER0_Init
  2691 ;; This function uses a non-reentrant model
  2692 ;;
  2693                           
  2694                           	psect	text17
  2695   001AA4                     __ptext17:
  2696                           	callstack 0
  2697   001AA4                     _TIMER0_MODE_Select:
  2698                           	callstack 24
  2699   001AA4                     
  2700                           ;MCAL_layer/TIMER/hal_timer0.c: 130:     if(1 == _timer->timer0_mode){
  2701   001AA4  5057               	movf	TIMER0_MODE_Select@_timer^0,w,c
  2702   001AA6  6ED9               	movwf	fsr2l,c
  2703   001AA8  6ADA               	clrf	fsr2h,c
  2704   001AAA  0E06               	movlw	6
  2705   001AAC  26D9               	addwf	fsr2l,f,c
  2706   001AAE  A4DF               	btfss	indf2,2,c
  2707   001AB0  EF5C  F00D         	goto	u3681
  2708   001AB4  EF5E  F00D         	goto	u3680
  2709   001AB8                     u3681:
  2710   001AB8  EF61  F00D         	goto	l5169
  2711   001ABC                     u3680:
  2712   001ABC                     
  2713                           ;MCAL_layer/TIMER/hal_timer0.c: 131:        (T0CONbits.T0CS = 0);
  2714   001ABC  9AD5               	bcf	213,5,c	;volatile
  2715                           
  2716                           ;MCAL_layer/TIMER/hal_timer0.c: 132:     }
  2717   001ABE  EF8C  F00D         	goto	l1205
  2718   001AC2                     l5169:
  2719   001AC2  5057               	movf	TIMER0_MODE_Select@_timer^0,w,c
  2720   001AC4  6ED9               	movwf	fsr2l,c
  2721   001AC6  6ADA               	clrf	fsr2h,c
  2722   001AC8  0E06               	movlw	6
  2723   001ACA  26D9               	addwf	fsr2l,f,c
  2724   001ACC  B4DF               	btfsc	indf2,2,c
  2725   001ACE  EF6B  F00D         	goto	u3691
  2726   001AD2  EF6D  F00D         	goto	u3690
  2727   001AD6                     u3691:
  2728   001AD6  EF8C  F00D         	goto	l1205
  2729   001ADA                     u3690:
  2730   001ADA                     
  2731                           ;MCAL_layer/TIMER/hal_timer0.c: 134:         (T0CONbits.T0CS = 1);
  2732   001ADA  8AD5               	bsf	213,5,c	;volatile
  2733   001ADC                     
  2734                           ;MCAL_layer/TIMER/hal_timer0.c: 135:         if(1 == _timer->timer0_counter_edge){
  2735   001ADC  5057               	movf	TIMER0_MODE_Select@_timer^0,w,c
  2736   001ADE  6ED9               	movwf	fsr2l,c
  2737   001AE0  6ADA               	clrf	fsr2h,c
  2738   001AE2  0E06               	movlw	6
  2739   001AE4  26D9               	addwf	fsr2l,f,c
  2740   001AE6  A2DF               	btfss	indf2,1,c
  2741   001AE8  EF78  F00D         	goto	u3701
  2742   001AEC  EF7A  F00D         	goto	u3700
  2743   001AF0                     u3701:
  2744   001AF0  EF7D  F00D         	goto	l5177
  2745   001AF4                     u3700:
  2746   001AF4                     
  2747                           ;MCAL_layer/TIMER/hal_timer0.c: 136:             (T0CONbits.T0SE = 0);
  2748   001AF4  98D5               	bcf	213,4,c	;volatile
  2749                           
  2750                           ;MCAL_layer/TIMER/hal_timer0.c: 137:         }
  2751   001AF6  EF8C  F00D         	goto	l1205
  2752   001AFA                     l5177:
  2753   001AFA  5057               	movf	TIMER0_MODE_Select@_timer^0,w,c
  2754   001AFC  6ED9               	movwf	fsr2l,c
  2755   001AFE  6ADA               	clrf	fsr2h,c
  2756   001B00  0E06               	movlw	6
  2757   001B02  26D9               	addwf	fsr2l,f,c
  2758   001B04  B2DF               	btfsc	indf2,1,c
  2759   001B06  EF87  F00D         	goto	u3711
  2760   001B0A  EF89  F00D         	goto	u3710
  2761   001B0E                     u3711:
  2762   001B0E  EF8C  F00D         	goto	l1204
  2763   001B12                     u3710:
  2764   001B12                     
  2765                           ;MCAL_layer/TIMER/hal_timer0.c: 139:             (T0CONbits.T0SE = 1);
  2766   001B12  88D5               	bsf	213,4,c	;volatile
  2767                           
  2768                           ;MCAL_layer/TIMER/hal_timer0.c: 140:         }
  2769   001B14  EF8C  F00D         	goto	l1205
  2770   001B18                     l1204:
  2771   001B18                     l1205:
  2772   001B18  0012               	return		;funcret
  2773   001B1A                     __end_of_TIMER0_MODE_Select:
  2774                           	callstack 0
  2775                           
  2776 ;; *************** function _InterruptMangerHigh *****************
  2777 ;; Defined at:
  2778 ;;		line 36 in file "MCAL_layer/Interrupt/mcal_interrupt_manager.c"
  2779 ;; Parameters:    Size  Location     Type
  2780 ;;		None
  2781 ;; Auto vars:     Size  Location     Type
  2782 ;;		None
  2783 ;; Return value:  Size  Location     Type
  2784 ;;                  1    wreg      void 
  2785 ;; Registers used:
  2786 ;;		wreg, fsr2l, fsr2h, status,2, status,0, pcl, pclath, pclatu, tosl, prodl, prodh, cstack
  2787 ;; Tracked objects:
  2788 ;;		On entry : 0/0
  2789 ;;		On exit  : 0/0
  2790 ;;		Unchanged: 0/0
  2791 ;; Data sizes:     COMRAM   BANK0   BANK1   BANK2   BANK3   BANK4   BANK5   BANK6   BANK7   BANK8   BANK9  BANK10  BANK1
      +1  BANK12  BANK13  BANK14  BANK15
  2792 ;;      Params:         0       0       0       0       0       0       0       0       0       0       0       0       
      +0       0       0       0       0
  2793 ;;      Locals:         0       0       0       0       0       0       0       0       0       0       0       0       
      +0       0       0       0       0
  2794 ;;      Temps:          6       0       0       0       0       0       0       0       0       0       0       0       
      +0       0       0       0       0
  2795 ;;      Totals:         6       0       0       0       0       0       0       0       0       0       0       0       
      +0       0       0       0       0
  2796 ;;Total ram usage:        6 bytes
  2797 ;; Hardware stack levels used: 1
  2798 ;; Hardware stack levels required when called: 4
  2799 ;; This function calls:
  2800 ;;		_ADC_ISR
  2801 ;;		_CCP1_ISR
  2802 ;;		_CCP2_ISR
  2803 ;;		_EUSART_Rx_ISR
  2804 ;;		_EUSART_Tx_ISR
  2805 ;;		_INT0_ISR
  2806 ;;		_INT1_ISR
  2807 ;;		_INT2_ISR
  2808 ;;		_MSSP_I2C_BC_ISR
  2809 ;;		_MSSP_I2C_ISR
  2810 ;;		_RB4_ISR
  2811 ;;		_RB5_ISR
  2812 ;;		_RB6_ISR
  2813 ;;		_RB7_ISR
  2814 ;;		_SPI_ISR
  2815 ;;		_TIMER0_ISR
  2816 ;;		_TIMER1_ISR
  2817 ;;		_TIMER2_ISR
  2818 ;;		_TIMER3_ISR
  2819 ;; This function is called by:
  2820 ;;		Interrupt level 2
  2821 ;; This function uses a non-reentrant model
  2822 ;;
  2823                           
  2824                           	psect	intcode
  2825   000008                     __pintcode:
  2826                           	callstack 0
  2827   000008                     _InterruptMangerHigh:
  2828                           	callstack 20
  2829                           
  2830                           ;incstack = 0
  2831   000008  826E               	bsf	int$flags,1,c	;set compiler interrupt flag (level 2)
  2832   00000A  ED0B  F008         	call	int_func,f	;refresh shadow registers
  2833                           
  2834                           	psect	intcode_body
  2835   001016                     __pintcode_body:
  2836                           	callstack 20
  2837   001016                     int_func:
  2838                           	callstack 20
  2839   001016  0006               	pop		; remove dummy address from shadow register refresh
  2840   001018  CFFA F051          	movff	pclath,??_InterruptMangerHigh
  2841   00101C  CFFB F052          	movff	pclatu,??_InterruptMangerHigh+1
  2842   001020  CFD9 F053          	movff	fsr2l,??_InterruptMangerHigh+2
  2843   001024  CFDA F054          	movff	fsr2h,??_InterruptMangerHigh+3
  2844   001028  CFF3 F055          	movff	prodl,??_InterruptMangerHigh+4
  2845   00102C  CFF4 F056          	movff	prodh,??_InterruptMangerHigh+5
  2846   001030                     
  2847                           ;MCAL_layer/Interrupt/mcal_interrupt_manager.c: 38:     if((1 == INTCONbits.INT0IE) && (
      +                          1 == INTCONbits.INT0IF)){
  2848   001030  A8F2               	btfss	242,4,c	;volatile
  2849   001032  EF1D  F008         	goto	i2u599_41
  2850   001036  EF1F  F008         	goto	i2u599_40
  2851   00103A                     i2u599_41:
  2852   00103A  EF28  F008         	goto	i2l1046
  2853   00103E                     i2u599_40:
  2854   00103E  A2F2               	btfss	242,1,c	;volatile
  2855   001040  EF24  F008         	goto	i2u600_41
  2856   001044  EF26  F008         	goto	i2u600_40
  2857   001048                     i2u600_41:
  2858   001048  EF28  F008         	goto	i2l1046
  2859   00104C                     i2u600_40:
  2860   00104C                     
  2861                           ;MCAL_layer/Interrupt/mcal_interrupt_manager.c: 39:         INT0_ISR();
  2862   00104C  ECDD  F00F         	call	_INT0_ISR	;wreg free
  2863   001050                     i2l1046:
  2864                           
  2865                           ;MCAL_layer/Interrupt/mcal_interrupt_manager.c: 44:     if((1 == INTCON3bits.INT1IE) && 
      +                          (1 == INTCON3bits.INT1IF)){
  2866   001050  A6F0               	btfss	240,3,c	;volatile
  2867   001052  EF2D  F008         	goto	i2u601_41
  2868   001056  EF2F  F008         	goto	i2u601_40
  2869   00105A                     i2u601_41:
  2870   00105A  EF38  F008         	goto	i2l1048
  2871   00105E                     i2u601_40:
  2872   00105E  A0F0               	btfss	240,0,c	;volatile
  2873   001060  EF34  F008         	goto	i2u602_41
  2874   001064  EF36  F008         	goto	i2u602_40
  2875   001068                     i2u602_41:
  2876   001068  EF38  F008         	goto	i2l1048
  2877   00106C                     i2u602_40:
  2878   00106C                     
  2879                           ;MCAL_layer/Interrupt/mcal_interrupt_manager.c: 45:         INT1_ISR();
  2880   00106C  ECDB  F00F         	call	_INT1_ISR	;wreg free
  2881   001070                     i2l1048:
  2882                           
  2883                           ;MCAL_layer/Interrupt/mcal_interrupt_manager.c: 50:     if((1 == INTCON3bits.INT2IE) && 
      +                          (1 == INTCON3bits.INT2IF)){
  2884   001070  A8F0               	btfss	240,4,c	;volatile
  2885   001072  EF3D  F008         	goto	i2u603_41
  2886   001076  EF3F  F008         	goto	i2u603_40
  2887   00107A                     i2u603_41:
  2888   00107A  EF48  F008         	goto	i2l1050
  2889   00107E                     i2u603_40:
  2890   00107E  A2F0               	btfss	240,1,c	;volatile
  2891   001080  EF44  F008         	goto	i2u604_41
  2892   001084  EF46  F008         	goto	i2u604_40
  2893   001088                     i2u604_41:
  2894   001088  EF48  F008         	goto	i2l1050
  2895   00108C                     i2u604_40:
  2896   00108C                     
  2897                           ;MCAL_layer/Interrupt/mcal_interrupt_manager.c: 51:         INT2_ISR();
  2898   00108C  ECD9  F00F         	call	_INT2_ISR	;wreg free
  2899   001090                     i2l1050:
  2900                           
  2901                           ;MCAL_layer/Interrupt/mcal_interrupt_manager.c: 59:     if((1 == INTCONbits.RBIE) && (1 
      +                          == INTCONbits.RBIF) && (PORTBbits.RB4 == GPIO_HIGH) && (RB4_FLAG == 1)){
  2902   001090  A6F2               	btfss	242,3,c	;volatile
  2903   001092  EF4D  F008         	goto	i2u605_41
  2904   001096  EF4F  F008         	goto	i2u605_40
  2905   00109A                     i2u605_41:
  2906   00109A  EF6A  F008         	goto	i2l1052
  2907   00109E                     i2u605_40:
  2908   00109E  A0F2               	btfss	242,0,c	;volatile
  2909   0010A0  EF54  F008         	goto	i2u606_41
  2910   0010A4  EF56  F008         	goto	i2u606_40
  2911   0010A8                     i2u606_41:
  2912   0010A8  EF6A  F008         	goto	i2l1052
  2913   0010AC                     i2u606_40:
  2914   0010AC  A881               	btfss	129,4,c	;volatile
  2915   0010AE  EF5B  F008         	goto	i2u607_41
  2916   0010B2  EF5D  F008         	goto	i2u607_40
  2917   0010B6                     i2u607_41:
  2918   0010B6  EF6A  F008         	goto	i2l1052
  2919   0010BA                     i2u607_40:
  2920   0010BA  046B               	decf	_RB4_FLAG^0,w,c
  2921   0010BC  A4D8               	btfss	status,2,c
  2922   0010BE  EF63  F008         	goto	i2u608_41
  2923   0010C2  EF65  F008         	goto	i2u608_40
  2924   0010C6                     i2u608_41:
  2925   0010C6  EF6A  F008         	goto	i2l1052
  2926   0010CA                     i2u608_40:
  2927   0010CA                     
  2928                           ;MCAL_layer/Interrupt/mcal_interrupt_manager.c: 60:         RB4_FLAG = 0;
  2929   0010CA  0E00               	movlw	0
  2930   0010CC  6E6B               	movwf	_RB4_FLAG^0,c
  2931   0010CE                     
  2932                           ;MCAL_layer/Interrupt/mcal_interrupt_manager.c: 61:         RB4_ISR(0);
  2933   0010CE  0E00               	movlw	0
  2934   0010D0  EC9C  F00F         	call	_RB4_ISR
  2935   0010D4                     i2l1052:
  2936                           
  2937                           ;MCAL_layer/Interrupt/mcal_interrupt_manager.c: 66:      if((1 == INTCONbits.RBIE) && (1
      +                           == INTCONbits.RBIF) && (PORTBbits.RB4 == GPIO_LOW) && (RB4_FLAG == 0)){
  2938   0010D4  A6F2               	btfss	242,3,c	;volatile
  2939   0010D6  EF6F  F008         	goto	i2u609_41
  2940   0010DA  EF71  F008         	goto	i2u609_40
  2941   0010DE                     i2u609_41:
  2942   0010DE  EF8C  F008         	goto	i2l1054
  2943   0010E2                     i2u609_40:
  2944   0010E2  A0F2               	btfss	242,0,c	;volatile
  2945   0010E4  EF76  F008         	goto	i2u610_41
  2946   0010E8  EF78  F008         	goto	i2u610_40
  2947   0010EC                     i2u610_41:
  2948   0010EC  EF8C  F008         	goto	i2l1054
  2949   0010F0                     i2u610_40:
  2950   0010F0  B881               	btfsc	129,4,c	;volatile
  2951   0010F2  EF7D  F008         	goto	i2u611_41
  2952   0010F6  EF7F  F008         	goto	i2u611_40
  2953   0010FA                     i2u611_41:
  2954   0010FA  EF8C  F008         	goto	i2l1054
  2955   0010FE                     i2u611_40:
  2956   0010FE  506B               	movf	_RB4_FLAG^0,w,c
  2957   001100  A4D8               	btfss	status,2,c
  2958   001102  EF85  F008         	goto	i2u612_41
  2959   001106  EF87  F008         	goto	i2u612_40
  2960   00110A                     i2u612_41:
  2961   00110A  EF8C  F008         	goto	i2l1054
  2962   00110E                     i2u612_40:
  2963   00110E                     
  2964                           ;MCAL_layer/Interrupt/mcal_interrupt_manager.c: 67:         RB4_FLAG = 1;
  2965   00110E  0E01               	movlw	1
  2966   001110  6E6B               	movwf	_RB4_FLAG^0,c
  2967   001112                     
  2968                           ;MCAL_layer/Interrupt/mcal_interrupt_manager.c: 68:         RB4_ISR(1);
  2969   001112  0E01               	movlw	1
  2970   001114  EC9C  F00F         	call	_RB4_ISR
  2971   001118                     i2l1054:
  2972                           
  2973                           ;MCAL_layer/Interrupt/mcal_interrupt_manager.c: 73:      if((1 == INTCONbits.RBIE) && (1
      +                           == INTCONbits.RBIF) && (PORTBbits.RB5 == GPIO_HIGH) && (RB5_FLAG == 1)){
  2974   001118  A6F2               	btfss	242,3,c	;volatile
  2975   00111A  EF91  F008         	goto	i2u613_41
  2976   00111E  EF93  F008         	goto	i2u613_40
  2977   001122                     i2u613_41:
  2978   001122  EFAE  F008         	goto	i2l1056
  2979   001126                     i2u613_40:
  2980   001126  A0F2               	btfss	242,0,c	;volatile
  2981   001128  EF98  F008         	goto	i2u614_41
  2982   00112C  EF9A  F008         	goto	i2u614_40
  2983   001130                     i2u614_41:
  2984   001130  EFAE  F008         	goto	i2l1056
  2985   001134                     i2u614_40:
  2986   001134  AA81               	btfss	129,5,c	;volatile
  2987   001136  EF9F  F008         	goto	i2u615_41
  2988   00113A  EFA1  F008         	goto	i2u615_40
  2989   00113E                     i2u615_41:
  2990   00113E  EFAE  F008         	goto	i2l1056
  2991   001142                     i2u615_40:
  2992   001142  046A               	decf	_RB5_FLAG^0,w,c
  2993   001144  A4D8               	btfss	status,2,c
  2994   001146  EFA7  F008         	goto	i2u616_41
  2995   00114A  EFA9  F008         	goto	i2u616_40
  2996   00114E                     i2u616_41:
  2997   00114E  EFAE  F008         	goto	i2l1056
  2998   001152                     i2u616_40:
  2999   001152                     
  3000                           ;MCAL_layer/Interrupt/mcal_interrupt_manager.c: 74:         RB5_FLAG = 0;
  3001   001152  0E00               	movlw	0
  3002   001154  6E6A               	movwf	_RB5_FLAG^0,c
  3003   001156                     
  3004                           ;MCAL_layer/Interrupt/mcal_interrupt_manager.c: 75:         RB5_ISR(0);
  3005   001156  0E00               	movlw	0
  3006   001158  EC8F  F00F         	call	_RB5_ISR
  3007   00115C                     i2l1056:
  3008                           
  3009                           ;MCAL_layer/Interrupt/mcal_interrupt_manager.c: 80:      if((1 == INTCONbits.RBIE) && (1
      +                           == INTCONbits.RBIF) && (PORTBbits.RB5 == GPIO_LOW) && (RB5_FLAG == 0)){
  3010   00115C  A6F2               	btfss	242,3,c	;volatile
  3011   00115E  EFB3  F008         	goto	i2u617_41
  3012   001162  EFB5  F008         	goto	i2u617_40
  3013   001166                     i2u617_41:
  3014   001166  EFD0  F008         	goto	i2l1058
  3015   00116A                     i2u617_40:
  3016   00116A  A0F2               	btfss	242,0,c	;volatile
  3017   00116C  EFBA  F008         	goto	i2u618_41
  3018   001170  EFBC  F008         	goto	i2u618_40
  3019   001174                     i2u618_41:
  3020   001174  EFD0  F008         	goto	i2l1058
  3021   001178                     i2u618_40:
  3022   001178  BA81               	btfsc	129,5,c	;volatile
  3023   00117A  EFC1  F008         	goto	i2u619_41
  3024   00117E  EFC3  F008         	goto	i2u619_40
  3025   001182                     i2u619_41:
  3026   001182  EFD0  F008         	goto	i2l1058
  3027   001186                     i2u619_40:
  3028   001186  506A               	movf	_RB5_FLAG^0,w,c
  3029   001188  A4D8               	btfss	status,2,c
  3030   00118A  EFC9  F008         	goto	i2u620_41
  3031   00118E  EFCB  F008         	goto	i2u620_40
  3032   001192                     i2u620_41:
  3033   001192  EFD0  F008         	goto	i2l1058
  3034   001196                     i2u620_40:
  3035   001196                     
  3036                           ;MCAL_layer/Interrupt/mcal_interrupt_manager.c: 81:         RB5_FLAG = 1;
  3037   001196  0E01               	movlw	1
  3038   001198  6E6A               	movwf	_RB5_FLAG^0,c
  3039   00119A                     
  3040                           ;MCAL_layer/Interrupt/mcal_interrupt_manager.c: 82:         RB5_ISR(1);
  3041   00119A  0E01               	movlw	1
  3042   00119C  EC8F  F00F         	call	_RB5_ISR
  3043   0011A0                     i2l1058:
  3044                           
  3045                           ;MCAL_layer/Interrupt/mcal_interrupt_manager.c: 87:      if((1 == INTCONbits.RBIE) && (1
      +                           == INTCONbits.RBIF) && (PORTBbits.RB6 == GPIO_HIGH) && (RB6_FLAG == 1)){
  3046   0011A0  A6F2               	btfss	242,3,c	;volatile
  3047   0011A2  EFD5  F008         	goto	i2u621_41
  3048   0011A6  EFD7  F008         	goto	i2u621_40
  3049   0011AA                     i2u621_41:
  3050   0011AA  EFF2  F008         	goto	i2l1060
  3051   0011AE                     i2u621_40:
  3052   0011AE  A0F2               	btfss	242,0,c	;volatile
  3053   0011B0  EFDC  F008         	goto	i2u622_41
  3054   0011B4  EFDE  F008         	goto	i2u622_40
  3055   0011B8                     i2u622_41:
  3056   0011B8  EFF2  F008         	goto	i2l1060
  3057   0011BC                     i2u622_40:
  3058   0011BC  AC81               	btfss	129,6,c	;volatile
  3059   0011BE  EFE3  F008         	goto	i2u623_41
  3060   0011C2  EFE5  F008         	goto	i2u623_40
  3061   0011C6                     i2u623_41:
  3062   0011C6  EFF2  F008         	goto	i2l1060
  3063   0011CA                     i2u623_40:
  3064   0011CA  0469               	decf	_RB6_FLAG^0,w,c
  3065   0011CC  A4D8               	btfss	status,2,c
  3066   0011CE  EFEB  F008         	goto	i2u624_41
  3067   0011D2  EFED  F008         	goto	i2u624_40
  3068   0011D6                     i2u624_41:
  3069   0011D6  EFF2  F008         	goto	i2l1060
  3070   0011DA                     i2u624_40:
  3071   0011DA                     
  3072                           ;MCAL_layer/Interrupt/mcal_interrupt_manager.c: 88:         RB6_FLAG = 0;
  3073   0011DA  0E00               	movlw	0
  3074   0011DC  6E69               	movwf	_RB6_FLAG^0,c
  3075   0011DE                     
  3076                           ;MCAL_layer/Interrupt/mcal_interrupt_manager.c: 89:         RB6_ISR(0);
  3077   0011DE  0E00               	movlw	0
  3078   0011E0  EC82  F00F         	call	_RB6_ISR
  3079   0011E4                     i2l1060:
  3080                           
  3081                           ;MCAL_layer/Interrupt/mcal_interrupt_manager.c: 94:      if((1 == INTCONbits.RBIE) && (1
      +                           == INTCONbits.RBIF) && (PORTBbits.RB6 == GPIO_LOW) && (RB6_FLAG == 0)){
  3082   0011E4  A6F2               	btfss	242,3,c	;volatile
  3083   0011E6  EFF7  F008         	goto	i2u625_41
  3084   0011EA  EFF9  F008         	goto	i2u625_40
  3085   0011EE                     i2u625_41:
  3086   0011EE  EF14  F009         	goto	i2l1062
  3087   0011F2                     i2u625_40:
  3088   0011F2  A0F2               	btfss	242,0,c	;volatile
  3089   0011F4  EFFE  F008         	goto	i2u626_41
  3090   0011F8  EF00  F009         	goto	i2u626_40
  3091   0011FC                     i2u626_41:
  3092   0011FC  EF14  F009         	goto	i2l1062
  3093   001200                     i2u626_40:
  3094   001200  BC81               	btfsc	129,6,c	;volatile
  3095   001202  EF05  F009         	goto	i2u627_41
  3096   001206  EF07  F009         	goto	i2u627_40
  3097   00120A                     i2u627_41:
  3098   00120A  EF14  F009         	goto	i2l1062
  3099   00120E                     i2u627_40:
  3100   00120E  5069               	movf	_RB6_FLAG^0,w,c
  3101   001210  A4D8               	btfss	status,2,c
  3102   001212  EF0D  F009         	goto	i2u628_41
  3103   001216  EF0F  F009         	goto	i2u628_40
  3104   00121A                     i2u628_41:
  3105   00121A  EF14  F009         	goto	i2l1062
  3106   00121E                     i2u628_40:
  3107   00121E                     
  3108                           ;MCAL_layer/Interrupt/mcal_interrupt_manager.c: 95:         RB6_FLAG = 1;
  3109   00121E  0E01               	movlw	1
  3110   001220  6E69               	movwf	_RB6_FLAG^0,c
  3111   001222                     
  3112                           ;MCAL_layer/Interrupt/mcal_interrupt_manager.c: 96:         RB6_ISR(1);
  3113   001222  0E01               	movlw	1
  3114   001224  EC82  F00F         	call	_RB6_ISR
  3115   001228                     i2l1062:
  3116                           
  3117                           ;MCAL_layer/Interrupt/mcal_interrupt_manager.c: 101:      if((1 == INTCONbits.RBIE) && (
      +                          1 == INTCONbits.RBIF) && (PORTBbits.RB7 == GPIO_HIGH) && (RB7_FLAG == 1)){
  3118   001228  A6F2               	btfss	242,3,c	;volatile
  3119   00122A  EF19  F009         	goto	i2u629_41
  3120   00122E  EF1B  F009         	goto	i2u629_40
  3121   001232                     i2u629_41:
  3122   001232  EF36  F009         	goto	i2l1064
  3123   001236                     i2u629_40:
  3124   001236  A0F2               	btfss	242,0,c	;volatile
  3125   001238  EF20  F009         	goto	i2u630_41
  3126   00123C  EF22  F009         	goto	i2u630_40
  3127   001240                     i2u630_41:
  3128   001240  EF36  F009         	goto	i2l1064
  3129   001244                     i2u630_40:
  3130   001244  AE81               	btfss	129,7,c	;volatile
  3131   001246  EF27  F009         	goto	i2u631_41
  3132   00124A  EF29  F009         	goto	i2u631_40
  3133   00124E                     i2u631_41:
  3134   00124E  EF36  F009         	goto	i2l1064
  3135   001252                     i2u631_40:
  3136   001252  0468               	decf	_RB7_FLAG^0,w,c
  3137   001254  A4D8               	btfss	status,2,c
  3138   001256  EF2F  F009         	goto	i2u632_41
  3139   00125A  EF31  F009         	goto	i2u632_40
  3140   00125E                     i2u632_41:
  3141   00125E  EF36  F009         	goto	i2l1064
  3142   001262                     i2u632_40:
  3143   001262                     
  3144                           ;MCAL_layer/Interrupt/mcal_interrupt_manager.c: 102:         RB7_FLAG = 0;
  3145   001262  0E00               	movlw	0
  3146   001264  6E68               	movwf	_RB7_FLAG^0,c
  3147   001266                     
  3148                           ;MCAL_layer/Interrupt/mcal_interrupt_manager.c: 103:         RB7_ISR(0);
  3149   001266  0E00               	movlw	0
  3150   001268  EC75  F00F         	call	_RB7_ISR
  3151   00126C                     i2l1064:
  3152                           
  3153                           ;MCAL_layer/Interrupt/mcal_interrupt_manager.c: 108:      if((1 == INTCONbits.RBIE) && (
      +                          1 == INTCONbits.RBIF) && (PORTBbits.RB7 == GPIO_LOW) && (RB7_FLAG == 0)){
  3154   00126C  A6F2               	btfss	242,3,c	;volatile
  3155   00126E  EF3B  F009         	goto	i2u633_41
  3156   001272  EF3D  F009         	goto	i2u633_40
  3157   001276                     i2u633_41:
  3158   001276  EF58  F009         	goto	i2l1066
  3159   00127A                     i2u633_40:
  3160   00127A  A0F2               	btfss	242,0,c	;volatile
  3161   00127C  EF42  F009         	goto	i2u634_41
  3162   001280  EF44  F009         	goto	i2u634_40
  3163   001284                     i2u634_41:
  3164   001284  EF58  F009         	goto	i2l1066
  3165   001288                     i2u634_40:
  3166   001288  BE81               	btfsc	129,7,c	;volatile
  3167   00128A  EF49  F009         	goto	i2u635_41
  3168   00128E  EF4B  F009         	goto	i2u635_40
  3169   001292                     i2u635_41:
  3170   001292  EF58  F009         	goto	i2l1066
  3171   001296                     i2u635_40:
  3172   001296  5068               	movf	_RB7_FLAG^0,w,c
  3173   001298  A4D8               	btfss	status,2,c
  3174   00129A  EF51  F009         	goto	i2u636_41
  3175   00129E  EF53  F009         	goto	i2u636_40
  3176   0012A2                     i2u636_41:
  3177   0012A2  EF58  F009         	goto	i2l1066
  3178   0012A6                     i2u636_40:
  3179   0012A6                     
  3180                           ;MCAL_layer/Interrupt/mcal_interrupt_manager.c: 109:         RB7_FLAG = 1;
  3181   0012A6  0E01               	movlw	1
  3182   0012A8  6E68               	movwf	_RB7_FLAG^0,c
  3183   0012AA                     
  3184                           ;MCAL_layer/Interrupt/mcal_interrupt_manager.c: 110:         RB7_ISR(1);
  3185   0012AA  0E01               	movlw	1
  3186   0012AC  EC75  F00F         	call	_RB7_ISR
  3187   0012B0                     i2l1066:
  3188                           
  3189                           ;MCAL_layer/Interrupt/mcal_interrupt_manager.c: 119:     if((1 == PIE1bits.ADIE) && (1 =
      +                          = PIR1bits.ADIF)){
  3190   0012B0  AC9D               	btfss	157,6,c	;volatile
  3191   0012B2  EF5D  F009         	goto	i2u637_41
  3192   0012B6  EF5F  F009         	goto	i2u637_40
  3193   0012BA                     i2u637_41:
  3194   0012BA  EF68  F009         	goto	i2l1068
  3195   0012BE                     i2u637_40:
  3196   0012BE  AC9E               	btfss	158,6,c	;volatile
  3197   0012C0  EF64  F009         	goto	i2u638_41
  3198   0012C4  EF66  F009         	goto	i2u638_40
  3199   0012C8                     i2u638_41:
  3200   0012C8  EF68  F009         	goto	i2l1068
  3201   0012CC                     i2u638_40:
  3202   0012CC                     
  3203                           ;MCAL_layer/Interrupt/mcal_interrupt_manager.c: 120:         ADC_ISR();
  3204   0012CC  ECE5  F00F         	call	_ADC_ISR	;wreg free
  3205   0012D0                     i2l1068:
  3206                           
  3207                           ;MCAL_layer/Interrupt/mcal_interrupt_manager.c: 128:     if((1 == INTCONbits.TMR0IE) && 
      +                          (1 == INTCONbits.TMR0IF)){
  3208   0012D0  AAF2               	btfss	242,5,c	;volatile
  3209   0012D2  EF6D  F009         	goto	i2u639_41
  3210   0012D6  EF6F  F009         	goto	i2u639_40
  3211   0012DA                     i2u639_41:
  3212   0012DA  EF78  F009         	goto	i2l1070
  3213   0012DE                     i2u639_40:
  3214   0012DE  A4F2               	btfss	242,2,c	;volatile
  3215   0012E0  EF74  F009         	goto	i2u640_41
  3216   0012E4  EF76  F009         	goto	i2u640_40
  3217   0012E8                     i2u640_41:
  3218   0012E8  EF78  F009         	goto	i2l1070
  3219   0012EC                     i2u640_40:
  3220   0012EC                     
  3221                           ;MCAL_layer/Interrupt/mcal_interrupt_manager.c: 129:         TIMER0_ISR();
  3222   0012EC  EC07  F00F         	call	_TIMER0_ISR	;wreg free
  3223   0012F0                     i2l1070:
  3224                           
  3225                           ;MCAL_layer/Interrupt/mcal_interrupt_manager.c: 136:     if((1 == (PIE1bits.TMR1IE) && (
      +                          1 == PIR1bits.TMR1IF))){
  3226   0012F0  A09D               	btfss	157,0,c	;volatile
  3227   0012F2  EF7D  F009         	goto	i2u641_41
  3228   0012F6  EF7F  F009         	goto	i2u641_40
  3229   0012FA                     i2u641_41:
  3230   0012FA  EF88  F009         	goto	i2l1072
  3231   0012FE                     i2u641_40:
  3232   0012FE  A09E               	btfss	158,0,c	;volatile
  3233   001300  EF84  F009         	goto	i2u642_41
  3234   001304  EF86  F009         	goto	i2u642_40
  3235   001308                     i2u642_41:
  3236   001308  EF88  F009         	goto	i2l1072
  3237   00130C                     i2u642_40:
  3238   00130C                     
  3239                           ;MCAL_layer/Interrupt/mcal_interrupt_manager.c: 137:         TIMER1_ISR();
  3240   00130C  ECC2  F00F         	call	_TIMER1_ISR	;wreg free
  3241   001310                     i2l1072:
  3242                           
  3243                           ;MCAL_layer/Interrupt/mcal_interrupt_manager.c: 143:     if((1 == (PIE1bits.TMR2IE) && (
      +                          1 == PIR1bits.TMR2IF))){
  3244   001310  A29D               	btfss	157,1,c	;volatile
  3245   001312  EF8D  F009         	goto	i2u643_41
  3246   001316  EF8F  F009         	goto	i2u643_40
  3247   00131A                     i2u643_41:
  3248   00131A  EF98  F009         	goto	i2l1074
  3249   00131E                     i2u643_40:
  3250   00131E  A29E               	btfss	158,1,c	;volatile
  3251   001320  EF94  F009         	goto	i2u644_41
  3252   001324  EF96  F009         	goto	i2u644_40
  3253   001328                     i2u644_41:
  3254   001328  EF98  F009         	goto	i2l1074
  3255   00132C                     i2u644_40:
  3256   00132C                     
  3257                           ;MCAL_layer/Interrupt/mcal_interrupt_manager.c: 144:         TIMER2_ISR();
  3258   00132C  ECCE  F00F         	call	_TIMER2_ISR	;wreg free
  3259   001330                     i2l1074:
  3260                           
  3261                           ;MCAL_layer/Interrupt/mcal_interrupt_manager.c: 150:     if((1 == (PIE2bits.TMR3IE) && (
      +                          1 == PIR2bits.TMR3IF))){
  3262   001330  A2A0               	btfss	160,1,c	;volatile
  3263   001332  EF9D  F009         	goto	i2u645_41
  3264   001336  EF9F  F009         	goto	i2u645_40
  3265   00133A                     i2u645_41:
  3266   00133A  EFA8  F009         	goto	i2l1076
  3267   00133E                     i2u645_40:
  3268   00133E  A2A1               	btfss	161,1,c	;volatile
  3269   001340  EFA4  F009         	goto	i2u646_41
  3270   001344  EFA6  F009         	goto	i2u646_40
  3271   001348                     i2u646_41:
  3272   001348  EFA8  F009         	goto	i2l1076
  3273   00134C                     i2u646_40:
  3274   00134C                     
  3275                           ;MCAL_layer/Interrupt/mcal_interrupt_manager.c: 151:        TIMER3_ISR();
  3276   00134C  ECBC  F00F         	call	_TIMER3_ISR	;wreg free
  3277   001350                     i2l1076:
  3278                           
  3279                           ;MCAL_layer/Interrupt/mcal_interrupt_manager.c: 160:     if((1 == PIE1bits.CCP1IE) && (1
      +                           == PIR1bits.CCP1IF)){
  3280   001350  A49D               	btfss	157,2,c	;volatile
  3281   001352  EFAD  F009         	goto	i2u647_41
  3282   001356  EFAF  F009         	goto	i2u647_40
  3283   00135A                     i2u647_41:
  3284   00135A  EFB8  F009         	goto	i2l1078
  3285   00135E                     i2u647_40:
  3286   00135E  A49E               	btfss	158,2,c	;volatile
  3287   001360  EFB4  F009         	goto	i2u648_41
  3288   001364  EFB6  F009         	goto	i2u648_40
  3289   001368                     i2u648_41:
  3290   001368  EFB8  F009         	goto	i2l1078
  3291   00136C                     i2u648_40:
  3292   00136C                     
  3293                           ;MCAL_layer/Interrupt/mcal_interrupt_manager.c: 161:         CCP1_ISR();
  3294   00136C  ECE3  F00F         	call	_CCP1_ISR	;wreg free
  3295   001370                     i2l1078:
  3296                           
  3297                           ;MCAL_layer/Interrupt/mcal_interrupt_manager.c: 167:     if((1 == PIE2bits.CCP2IE) && (1
      +                           == PIR2bits.CCP2IF)){
  3298   001370  A0A0               	btfss	160,0,c	;volatile
  3299   001372  EFBD  F009         	goto	i2u649_41
  3300   001376  EFBF  F009         	goto	i2u649_40
  3301   00137A                     i2u649_41:
  3302   00137A  EFC8  F009         	goto	i2l1080
  3303   00137E                     i2u649_40:
  3304   00137E  A0A1               	btfss	161,0,c	;volatile
  3305   001380  EFC4  F009         	goto	i2u650_41
  3306   001384  EFC6  F009         	goto	i2u650_40
  3307   001388                     i2u650_41:
  3308   001388  EFC8  F009         	goto	i2l1080
  3309   00138C                     i2u650_40:
  3310   00138C                     
  3311                           ;MCAL_layer/Interrupt/mcal_interrupt_manager.c: 168:         CCP2_ISR();
  3312   00138C  ECE1  F00F         	call	_CCP2_ISR	;wreg free
  3313   001390                     i2l1080:
  3314                           
  3315                           ;MCAL_layer/Interrupt/mcal_interrupt_manager.c: 176:     if((1 == PIE1bits.TXIE) && (1 =
      +                          = PIR1bits.TXIF)){
  3316   001390  A89D               	btfss	157,4,c	;volatile
  3317   001392  EFCD  F009         	goto	i2u651_41
  3318   001396  EFCF  F009         	goto	i2u651_40
  3319   00139A                     i2u651_41:
  3320   00139A  EFD8  F009         	goto	i2l1082
  3321   00139E                     i2u651_40:
  3322   00139E  A89E               	btfss	158,4,c	;volatile
  3323   0013A0  EFD4  F009         	goto	i2u652_41
  3324   0013A4  EFD6  F009         	goto	i2u652_40
  3325   0013A8                     i2u652_41:
  3326   0013A8  EFD8  F009         	goto	i2l1082
  3327   0013AC                     i2u652_40:
  3328   0013AC                     
  3329                           ;MCAL_layer/Interrupt/mcal_interrupt_manager.c: 177:         EUSART_Tx_ISR();
  3330   0013AC  ECDF  F00F         	call	_EUSART_Tx_ISR	;wreg free
  3331   0013B0                     i2l1082:
  3332                           
  3333                           ;MCAL_layer/Interrupt/mcal_interrupt_manager.c: 183:     if((1 == PIE1bits.RCIE) && (1 =
      +                          = PIR1bits.RCIF)){
  3334   0013B0  AA9D               	btfss	157,5,c	;volatile
  3335   0013B2  EFDD  F009         	goto	i2u653_41
  3336   0013B6  EFDF  F009         	goto	i2u653_40
  3337   0013BA                     i2u653_41:
  3338   0013BA  EFE8  F009         	goto	i2l1084
  3339   0013BE                     i2u653_40:
  3340   0013BE  AA9E               	btfss	158,5,c	;volatile
  3341   0013C0  EFE4  F009         	goto	i2u654_41
  3342   0013C4  EFE6  F009         	goto	i2u654_40
  3343   0013C8                     i2u654_41:
  3344   0013C8  EFE8  F009         	goto	i2l1084
  3345   0013CC                     i2u654_40:
  3346   0013CC                     
  3347                           ;MCAL_layer/Interrupt/mcal_interrupt_manager.c: 184:         EUSART_Rx_ISR();
  3348   0013CC  ECE8  F00F         	call	_EUSART_Rx_ISR	;wreg free
  3349   0013D0                     i2l1084:
  3350                           
  3351                           ;MCAL_layer/Interrupt/mcal_interrupt_manager.c: 192:     if((1 == PIE1bits.SSPIE) && (1 
      +                          == PIR1bits.SSPIF)){
  3352   0013D0  A69D               	btfss	157,3,c	;volatile
  3353   0013D2  EFED  F009         	goto	i2u655_41
  3354   0013D6  EFEF  F009         	goto	i2u655_40
  3355   0013DA                     i2u655_41:
  3356   0013DA  EFF8  F009         	goto	i2l1086
  3357   0013DE                     i2u655_40:
  3358   0013DE  A69E               	btfss	158,3,c	;volatile
  3359   0013E0  EFF4  F009         	goto	i2u656_41
  3360   0013E4  EFF6  F009         	goto	i2u656_40
  3361   0013E8                     i2u656_41:
  3362   0013E8  EFF8  F009         	goto	i2l1086
  3363   0013EC                     i2u656_40:
  3364   0013EC                     
  3365                           ;MCAL_layer/Interrupt/mcal_interrupt_manager.c: 193:        SPI_ISR();
  3366   0013EC  ECE7  F00F         	call	_SPI_ISR	;wreg free
  3367   0013F0                     i2l1086:
  3368                           
  3369                           ;MCAL_layer/Interrupt/mcal_interrupt_manager.c: 200:     if((1 == PIE1bits.SSPIE) && (1 
      +                          == PIR1bits.SSPIF)){
  3370   0013F0  A69D               	btfss	157,3,c	;volatile
  3371   0013F2  EFFD  F009         	goto	i2u657_41
  3372   0013F6  EFFF  F009         	goto	i2u657_40
  3373   0013FA                     i2u657_41:
  3374   0013FA  EF08  F00A         	goto	i2l1088
  3375   0013FE                     i2u657_40:
  3376   0013FE  A69E               	btfss	158,3,c	;volatile
  3377   001400  EF04  F00A         	goto	i2u658_41
  3378   001404  EF06  F00A         	goto	i2u658_40
  3379   001408                     i2u658_41:
  3380   001408  EF08  F00A         	goto	i2l1088
  3381   00140C                     i2u658_40:
  3382   00140C                     
  3383                           ;MCAL_layer/Interrupt/mcal_interrupt_manager.c: 201:        MSSP_I2C_ISR();
  3384   00140C  ECD5  F00F         	call	_MSSP_I2C_ISR	;wreg free
  3385   001410                     i2l1088:
  3386                           
  3387                           ;MCAL_layer/Interrupt/mcal_interrupt_manager.c: 206:     if((1 == PIE2bits.BCLIE) && (1 
      +                          == PIR2bits.BCLIF)){
  3388   001410  A6A0               	btfss	160,3,c	;volatile
  3389   001412  EF0D  F00A         	goto	i2u659_41
  3390   001416  EF0F  F00A         	goto	i2u659_40
  3391   00141A                     i2u659_41:
  3392   00141A  EF18  F00A         	goto	i2l1091
  3393   00141E                     i2u659_40:
  3394   00141E  A6A1               	btfss	161,3,c	;volatile
  3395   001420  EF14  F00A         	goto	i2u660_41
  3396   001424  EF16  F00A         	goto	i2u660_40
  3397   001428                     i2u660_41:
  3398   001428  EF18  F00A         	goto	i2l1091
  3399   00142C                     i2u660_40:
  3400   00142C                     
  3401                           ;MCAL_layer/Interrupt/mcal_interrupt_manager.c: 207:        MSSP_I2C_BC_ISR();
  3402   00142C  ECD7  F00F         	call	_MSSP_I2C_BC_ISR	;wreg free
  3403   001430                     i2l1091:
  3404   001430  C056  FFF4         	movff	??_InterruptMangerHigh+5,prodh
  3405   001434  C055  FFF3         	movff	??_InterruptMangerHigh+4,prodl
  3406   001438  C054  FFDA         	movff	??_InterruptMangerHigh+3,fsr2h
  3407   00143C  C053  FFD9         	movff	??_InterruptMangerHigh+2,fsr2l
  3408   001440  C052  FFFB         	movff	??_InterruptMangerHigh+1,pclatu
  3409   001444  C051  FFFA         	movff	??_InterruptMangerHigh,pclath
  3410   001448  926E               	bcf	int$flags,1,c	;clear compiler interrupt flag (level 2)
  3411   00144A  0011               	retfie		f
  3412   00144C                     __end_of_InterruptMangerHigh:
  3413                           	callstack 0
  3414                           
  3415 ;; *************** function _TIMER3_ISR *****************
  3416 ;; Defined at:
  3417 ;;		line 104 in file "MCAL_layer/TIMER3/hal_timer3.c"
  3418 ;; Parameters:    Size  Location     Type
  3419 ;;		None
  3420 ;; Auto vars:     Size  Location     Type
  3421 ;;		None
  3422 ;; Return value:  Size  Location     Type
  3423 ;;                  1    wreg      void 
  3424 ;; Registers used:
  3425 ;;		wreg, status,2
  3426 ;; Tracked objects:
  3427 ;;		On entry : 0/0
  3428 ;;		On exit  : 0/0
  3429 ;;		Unchanged: 0/0
  3430 ;; Data sizes:     COMRAM   BANK0   BANK1   BANK2   BANK3   BANK4   BANK5   BANK6   BANK7   BANK8   BANK9  BANK10  BANK1
      +1  BANK12  BANK13  BANK14  BANK15
  3431 ;;      Params:         0       0       0       0       0       0       0       0       0       0       0       0       
      +0       0       0       0       0
  3432 ;;      Locals:         0       0       0       0       0       0       0       0       0       0       0       0       
      +0       0       0       0       0
  3433 ;;      Temps:          0       0       0       0       0       0       0       0       0       0       0       0       
      +0       0       0       0       0
  3434 ;;      Totals:         0       0       0       0       0       0       0       0       0       0       0       0       
      +0       0       0       0       0
  3435 ;;Total ram usage:        0 bytes
  3436 ;; Hardware stack levels used: 1
  3437 ;; This function calls:
  3438 ;;		Nothing
  3439 ;; This function is called by:
  3440 ;;		_InterruptMangerHigh
  3441 ;; This function uses a non-reentrant model
  3442 ;;
  3443                           
  3444                           	psect	text19
  3445   001F78                     __ptext19:
  3446                           	callstack 0
  3447   001F78                     _TIMER3_ISR:
  3448                           	callstack 23
  3449   001F78                     
  3450                           ;MCAL_layer/TIMER3/hal_timer3.c: 105:     (PIR2bits.TMR3IF = 0);
  3451   001F78  92A1               	bcf	161,1,c	;volatile
  3452   001F7A                     
  3453                           ;MCAL_layer/TIMER3/hal_timer3.c: 106:     TMR3H = (timer3_preload) >> 8;
  3454   001F7A  5010               	movf	(_timer3_preload+1)^0,w,c
  3455   001F7C  6EB3               	movwf	179,c	;volatile
  3456   001F7E                     
  3457                           ;MCAL_layer/TIMER3/hal_timer3.c: 107:     TMR3L = (uint8)(timer3_preload);
  3458   001F7E  C00F  FFB2         	movff	_timer3_preload,4018	;volatile
  3459   001F82  0012               	return		;funcret
  3460   001F84                     __end_of_TIMER3_ISR:
  3461                           	callstack 0
  3462                           
  3463 ;; *************** function _TIMER2_ISR *****************
  3464 ;; Defined at:
  3465 ;;		line 98 in file "MCAL_layer/TIMER2/hal_timer2.c"
  3466 ;; Parameters:    Size  Location     Type
  3467 ;;		None
  3468 ;; Auto vars:     Size  Location     Type
  3469 ;;		None
  3470 ;; Return value:  Size  Location     Type
  3471 ;;                  1    wreg      void 
  3472 ;; Registers used:
  3473 ;;		None
  3474 ;; Tracked objects:
  3475 ;;		On entry : 0/0
  3476 ;;		On exit  : 0/0
  3477 ;;		Unchanged: 0/0
  3478 ;; Data sizes:     COMRAM   BANK0   BANK1   BANK2   BANK3   BANK4   BANK5   BANK6   BANK7   BANK8   BANK9  BANK10  BANK1
      +1  BANK12  BANK13  BANK14  BANK15
  3479 ;;      Params:         0       0       0       0       0       0       0       0       0       0       0       0       
      +0       0       0       0       0
  3480 ;;      Locals:         0       0       0       0       0       0       0       0       0       0       0       0       
      +0       0       0       0       0
  3481 ;;      Temps:          0       0       0       0       0       0       0       0       0       0       0       0       
      +0       0       0       0       0
  3482 ;;      Totals:         0       0       0       0       0       0       0       0       0       0       0       0       
      +0       0       0       0       0
  3483 ;;Total ram usage:        0 bytes
  3484 ;; Hardware stack levels used: 1
  3485 ;; This function calls:
  3486 ;;		Nothing
  3487 ;; This function is called by:
  3488 ;;		_InterruptMangerHigh
  3489 ;; This function uses a non-reentrant model
  3490 ;;
  3491                           
  3492                           	psect	text20
  3493   001F9C                     __ptext20:
  3494                           	callstack 0
  3495   001F9C                     _TIMER2_ISR:
  3496                           	callstack 23
  3497   001F9C                     
  3498                           ;MCAL_layer/TIMER2/hal_timer2.c: 99:     (PIR1bits.TMR2IF = 0);
  3499   001F9C  929E               	bcf	158,1,c	;volatile
  3500                           
  3501                           ;MCAL_layer/TIMER2/hal_timer2.c: 100:     TMR2 = timer2_preload;
  3502   001F9E  C03E  FFCC         	movff	_timer2_preload,4044	;volatile
  3503   001FA2  0012               	return		;funcret
  3504   001FA4                     __end_of_TIMER2_ISR:
  3505                           	callstack 0
  3506                           
  3507 ;; *************** function _TIMER1_ISR *****************
  3508 ;; Defined at:
  3509 ;;		line 102 in file "MCAL_layer/TIMER1/hal_timer1.c"
  3510 ;; Parameters:    Size  Location     Type
  3511 ;;		None
  3512 ;; Auto vars:     Size  Location     Type
  3513 ;;		None
  3514 ;; Return value:  Size  Location     Type
  3515 ;;                  1    wreg      void 
  3516 ;; Registers used:
  3517 ;;		wreg, status,2
  3518 ;; Tracked objects:
  3519 ;;		On entry : 0/0
  3520 ;;		On exit  : 0/0
  3521 ;;		Unchanged: 0/0
  3522 ;; Data sizes:     COMRAM   BANK0   BANK1   BANK2   BANK3   BANK4   BANK5   BANK6   BANK7   BANK8   BANK9  BANK10  BANK1
      +1  BANK12  BANK13  BANK14  BANK15
  3523 ;;      Params:         0       0       0       0       0       0       0       0       0       0       0       0       
      +0       0       0       0       0
  3524 ;;      Locals:         0       0       0       0       0       0       0       0       0       0       0       0       
      +0       0       0       0       0
  3525 ;;      Temps:          0       0       0       0       0       0       0       0       0       0       0       0       
      +0       0       0       0       0
  3526 ;;      Totals:         0       0       0       0       0       0       0       0       0       0       0       0       
      +0       0       0       0       0
  3527 ;;Total ram usage:        0 bytes
  3528 ;; Hardware stack levels used: 1
  3529 ;; This function calls:
  3530 ;;		Nothing
  3531 ;; This function is called by:
  3532 ;;		_InterruptMangerHigh
  3533 ;; This function uses a non-reentrant model
  3534 ;;
  3535                           
  3536                           	psect	text21
  3537   001F84                     __ptext21:
  3538                           	callstack 0
  3539   001F84                     _TIMER1_ISR:
  3540                           	callstack 23
  3541   001F84                     
  3542                           ;MCAL_layer/TIMER1/hal_timer1.c: 103:     (PIR1bits.TMR1IF = 0);
  3543   001F84  909E               	bcf	158,0,c	;volatile
  3544   001F86                     
  3545                           ;MCAL_layer/TIMER1/hal_timer1.c: 104:     TMR1H = (timer1_preload) >> 8;
  3546   001F86  5016               	movf	(_timer1_preload+1)^0,w,c
  3547   001F88  6ECF               	movwf	207,c	;volatile
  3548   001F8A                     
  3549                           ;MCAL_layer/TIMER1/hal_timer1.c: 105:     TMR1L = (uint8)(timer1_preload);
  3550   001F8A  C015  FFCE         	movff	_timer1_preload,4046	;volatile
  3551   001F8E  0012               	return		;funcret
  3552   001F90                     __end_of_TIMER1_ISR:
  3553                           	callstack 0
  3554                           
  3555 ;; *************** function _TIMER0_ISR *****************
  3556 ;; Defined at:
  3557 ;;		line 108 in file "MCAL_layer/TIMER/hal_timer0.c"
  3558 ;; Parameters:    Size  Location     Type
  3559 ;;		None
  3560 ;; Auto vars:     Size  Location     Type
  3561 ;;		None
  3562 ;; Return value:  Size  Location     Type
  3563 ;;                  1    wreg      void 
  3564 ;; Registers used:
  3565 ;;		wreg, fsr2l, fsr2h, status,2, status,0, pcl, pclath, pclatu, tosl, prodl, prodh, cstack
  3566 ;; Tracked objects:
  3567 ;;		On entry : 0/0
  3568 ;;		On exit  : 0/0
  3569 ;;		Unchanged: 0/0
  3570 ;; Data sizes:     COMRAM   BANK0   BANK1   BANK2   BANK3   BANK4   BANK5   BANK6   BANK7   BANK8   BANK9  BANK10  BANK1
      +1  BANK12  BANK13  BANK14  BANK15
  3571 ;;      Params:         0       0       0       0       0       0       0       0       0       0       0       0       
      +0       0       0       0       0
  3572 ;;      Locals:         0       0       0       0       0       0       0       0       0       0       0       0       
      +0       0       0       0       0
  3573 ;;      Temps:          0       0       0       0       0       0       0       0       0       0       0       0       
      +0       0       0       0       0
  3574 ;;      Totals:         0       0       0       0       0       0       0       0       0       0       0       0       
      +0       0       0       0       0
  3575 ;;Total ram usage:        0 bytes
  3576 ;; Hardware stack levels used: 1
  3577 ;; Hardware stack levels required when called: 3
  3578 ;; This function calls:
  3579 ;;		NULL
  3580 ;;		_default_interrupt_handler
  3581 ;; This function is called by:
  3582 ;;		_InterruptMangerHigh
  3583 ;; This function uses a non-reentrant model
  3584 ;;
  3585                           
  3586                           	psect	text22
  3587   001E0E                     __ptext22:
  3588                           	callstack 0
  3589   001E0E                     _TIMER0_ISR:
  3590                           	callstack 20
  3591   001E0E                     
  3592                           ;MCAL_layer/TIMER/hal_timer0.c: 109:     (INTCONbits.TMR0IF = 0);
  3593   001E0E  94F2               	bcf	242,2,c	;volatile
  3594   001E10                     
  3595                           ;MCAL_layer/TIMER/hal_timer0.c: 110:     TMR0H = (timer0_preload) >> 8;
  3596   001E10  501A               	movf	(_timer0_preload+1)^0,w,c
  3597   001E12  6ED7               	movwf	215,c	;volatile
  3598   001E14                     
  3599                           ;MCAL_layer/TIMER/hal_timer0.c: 111:     TMR0L = (uint8)(timer0_preload);
  3600   001E14  C019  FFD6         	movff	_timer0_preload,4054	;volatile
  3601   001E18                     
  3602                           ;MCAL_layer/TIMER/hal_timer0.c: 112:     if(TIMER0_InterruptHandler){
  3603   001E18  501B               	movf	_TIMER0_InterruptHandler^0,w,c
  3604   001E1A  101C               	iorwf	(_TIMER0_InterruptHandler+1)^0,w,c
  3605   001E1C  B4D8               	btfsc	status,2,c
  3606   001E1E  EF13  F00F         	goto	i2u548_41
  3607   001E22  EF15  F00F         	goto	i2u548_40
  3608   001E26                     i2u548_41:
  3609   001E26  EF21  F00F         	goto	i2l1187
  3610   001E2A                     i2u548_40:
  3611   001E2A                     
  3612                           ;MCAL_layer/TIMER/hal_timer0.c: 113:        TIMER0_InterruptHandler();
  3613   001E2A  D802               	call	i2u549_48
  3614   001E2C  EF21  F00F         	goto	i2u549_49
  3615   001E30                     i2u549_48:
  3616   001E30  0005               	push	
  3617   001E32  6EFA               	movwf	pclath,c
  3618   001E34  501B               	movf	_TIMER0_InterruptHandler^0,w,c
  3619   001E36  6EFD               	movwf	tosl,c
  3620   001E38  501C               	movf	(_TIMER0_InterruptHandler+1)^0,w,c
  3621   001E3A  6EFE               	movwf	tosh,c
  3622   001E3C  6AFF               	clrf	tosu,c
  3623   001E3E  50FA               	movf	pclath,w,c
  3624   001E40  0012               	return		;indir
  3625   001E42                     i2u549_49:
  3626   001E42                     i2l1187:
  3627   001E42  0012               	return		;funcret
  3628   001E44                     __end_of_TIMER0_ISR:
  3629                           	callstack 0
  3630                           
  3631 ;; *************** function _default_interrupt_handler *****************
  3632 ;; Defined at:
  3633 ;;		line 13 in file "application.c"
  3634 ;; Parameters:    Size  Location     Type
  3635 ;;		None
  3636 ;; Auto vars:     Size  Location     Type
  3637 ;;		None
  3638 ;; Return value:  Size  Location     Type
  3639 ;;                  1    wreg      void 
  3640 ;; Registers used:
  3641 ;;		wreg, fsr2l, fsr2h, status,2, status,0, prodl, prodh, cstack
  3642 ;; Tracked objects:
  3643 ;;		On entry : 0/0
  3644 ;;		On exit  : 0/0
  3645 ;;		Unchanged: 0/0
  3646 ;; Data sizes:     COMRAM   BANK0   BANK1   BANK2   BANK3   BANK4   BANK5   BANK6   BANK7   BANK8   BANK9  BANK10  BANK1
      +1  BANK12  BANK13  BANK14  BANK15
  3647 ;;      Params:         0       0       0       0       0       0       0       0       0       0       0       0       
      +0       0       0       0       0
  3648 ;;      Locals:         0       0       0       0       0       0       0       0       0       0       0       0       
      +0       0       0       0       0
  3649 ;;      Temps:          0       0       0       0       0       0       0       0       0       0       0       0       
      +0       0       0       0       0
  3650 ;;      Totals:         0       0       0       0       0       0       0       0       0       0       0       0       
      +0       0       0       0       0
  3651 ;;Total ram usage:        0 bytes
  3652 ;; Hardware stack levels used: 1
  3653 ;; Hardware stack levels required when called: 2
  3654 ;; This function calls:
  3655 ;;		_led_turn_on
  3656 ;; This function is called by:
  3657 ;;		_TIMER0_ISR
  3658 ;; This function uses a non-reentrant model
  3659 ;;
  3660                           
  3661                           	psect	text23
  3662   001F90                     __ptext23:
  3663                           	callstack 0
  3664   001F90                     _default_interrupt_handler:
  3665                           	callstack 20
  3666   001F90                     
  3667                           ;application.c: 14:     green_counter++;
  3668   001F90  2A3D               	incf	_green_counter^0,f,c	;volatile
  3669   001F92                     
  3670                           ;application.c: 15:     led_turn_on(&led1);
  3671   001F92  0E6C               	movlw	low _led1
  3672   001F94  6E4E               	movwf	led_turn_on@LED^0,c
  3673   001F96  ECC7  F00D         	call	_led_turn_on	;wreg free
  3674   001F9A  0012               	return		;funcret
  3675   001F9C                     __end_of_default_interrupt_handler:
  3676                           	callstack 0
  3677                           
  3678 ;; *************** function _led_turn_on *****************
  3679 ;; Defined at:
  3680 ;;		line 28 in file "ECU_layer/LED/ecu_led.c"
  3681 ;; Parameters:    Size  Location     Type
  3682 ;;  LED             1    8[COMRAM] PTR const struct .
  3683 ;;		 -> led1(1), 
  3684 ;; Auto vars:     Size  Location     Type
  3685 ;;  pin_obj         1   10[COMRAM] struct .
  3686 ;;  ret             1    0        unsigned char 
  3687 ;; Return value:  Size  Location     Type
  3688 ;;                  1    wreg      unsigned char 
  3689 ;; Registers used:
  3690 ;;		wreg, fsr2l, fsr2h, status,2, status,0, prodl, prodh, cstack
  3691 ;; Tracked objects:
  3692 ;;		On entry : 0/0
  3693 ;;		On exit  : 0/0
  3694 ;;		Unchanged: 0/0
  3695 ;; Data sizes:     COMRAM   BANK0   BANK1   BANK2   BANK3   BANK4   BANK5   BANK6   BANK7   BANK8   BANK9  BANK10  BANK1
      +1  BANK12  BANK13  BANK14  BANK15
  3696 ;;      Params:         1       0       0       0       0       0       0       0       0       0       0       0       
      +0       0       0       0       0
  3697 ;;      Locals:         1       0       0       0       0       0       0       0       0       0       0       0       
      +0       0       0       0       0
  3698 ;;      Temps:          1       0       0       0       0       0       0       0       0       0       0       0       
      +0       0       0       0       0
  3699 ;;      Totals:         3       0       0       0       0       0       0       0       0       0       0       0       
      +0       0       0       0       0
  3700 ;;Total ram usage:        3 bytes
  3701 ;; Hardware stack levels used: 1
  3702 ;; Hardware stack levels required when called: 1
  3703 ;; This function calls:
  3704 ;;		i2_gpio_pin_write_logic
  3705 ;; This function is called by:
  3706 ;;		_default_interrupt_handler
  3707 ;; This function uses a non-reentrant model
  3708 ;;
  3709                           
  3710                           	psect	text24
  3711   001B8E                     __ptext24:
  3712                           	callstack 0
  3713   001B8E                     _led_turn_on:
  3714                           	callstack 20
  3715   001B8E                     
  3716                           ;ECU_layer/LED/ecu_led.c: 30:        if(((void*)0)== LED){
  3717   001B8E  504E               	movf	led_turn_on@LED^0,w,c
  3718   001B90  A4D8               	btfss	status,2,c
  3719   001B92  EFCD  F00D         	goto	i2u538_41
  3720   001B96  EFCF  F00D         	goto	i2u538_40
  3721   001B9A                     i2u538_41:
  3722   001B9A  EFD1  F00D         	goto	i2l286
  3723   001B9E                     i2u538_40:
  3724   001B9E                     
  3725                           ;ECU_layer/LED/ecu_led.c: 32:      }
  3726   001B9E  EFFB  F00D         	goto	i2l290
  3727   001BA2                     i2l286:
  3728                           
  3729                           ;ECU_layer/LED/ecu_led.c: 34:           pin_config_t pin_obj ={
  3730   001BA2  C044  F050         	movff	led_turn_on@F3067,led_turn_on@pin_obj
  3731   001BA6  504E               	movf	led_turn_on@LED^0,w,c
  3732   001BA8  6ED9               	movwf	fsr2l,c
  3733   001BAA  6ADA               	clrf	fsr2h,c
  3734   001BAC  50DF               	movf	223,w,c
  3735   001BAE  0B0F               	andlw	15
  3736   001BB0  6E4F               	movwf	??_led_turn_on^0,c
  3737   001BB2  5050               	movf	led_turn_on@pin_obj^0,w,c
  3738   001BB4  184F               	xorwf	??_led_turn_on^0,w,c
  3739   001BB6  0BF8               	andlw	-8
  3740   001BB8  184F               	xorwf	??_led_turn_on^0,w,c
  3741   001BBA  6E50               	movwf	led_turn_on@pin_obj^0,c
  3742   001BBC  504E               	movf	led_turn_on@LED^0,w,c
  3743   001BBE  6ED9               	movwf	fsr2l,c
  3744   001BC0  6ADA               	clrf	fsr2h,c
  3745   001BC2  38DF               	swapf	223,w,c
  3746   001BC4  0B07               	andlw	7
  3747   001BC6  6E4F               	movwf	??_led_turn_on^0,c
  3748   001BC8  464F               	rlncf	??_led_turn_on^0,f,c
  3749   001BCA  464F               	rlncf	??_led_turn_on^0,f,c
  3750   001BCC  464F               	rlncf	??_led_turn_on^0,f,c
  3751   001BCE  5050               	movf	led_turn_on@pin_obj^0,w,c
  3752   001BD0  184F               	xorwf	??_led_turn_on^0,w,c
  3753   001BD2  0BC7               	andlw	-57
  3754   001BD4  184F               	xorwf	??_led_turn_on^0,w,c
  3755   001BD6  6E50               	movwf	led_turn_on@pin_obj^0,c
  3756   001BD8  9C50               	bcf	led_turn_on@pin_obj^0,6,c
  3757   001BDA  504E               	movf	led_turn_on@LED^0,w,c
  3758   001BDC  6ED9               	movwf	fsr2l,c
  3759   001BDE  6ADA               	clrf	fsr2h,c
  3760   001BE0  AEDF               	btfss	indf2,7,c
  3761   001BE2  D002               	bra	i2u539_45
  3762   001BE4  8E50               	bsf	led_turn_on@pin_obj^0,7,c
  3763   001BE6  D001               	bra	i2u539_47
  3764   001BE8                     i2u539_45:
  3765   001BE8  9E50               	bcf	led_turn_on@pin_obj^0,7,c
  3766   001BEA                     i2u539_47:
  3767   001BEA  0E50               	movlw	low led_turn_on@pin_obj
  3768   001BEC  6E46               	movwf	i2gpio_pin_write_logic@pin_config^0,c
  3769   001BEE  0E01               	movlw	1
  3770   001BF0  6E47               	movwf	i2gpio_pin_write_logic@logic^0,c
  3771   001BF2  EC39  F00B         	call	i2_gpio_pin_write_logic	;wreg free
  3772   001BF6                     i2l290:
  3773   001BF6  0012               	return		;funcret
  3774   001BF8                     __end_of_led_turn_on:
  3775                           	callstack 0
  3776                           
  3777 ;; *************** function i2_gpio_pin_write_logic *****************
  3778 ;; Defined at:
  3779 ;;		line 52 in file "MCAL_layer/GPIO/hal_gpio.c"
  3780 ;; Parameters:    Size  Location     Type
  3781 ;;  pin_config      1    0[COMRAM] PTR const struct .
  3782 ;;		 -> lcd_2(10), lcd_1(6), relay_turn_off@relay_obj(1), relay_turn_on@relay_obj(1), 
  3783 ;;		 -> relay_intialization@relay_obj(1), led_turn_off@pin_obj(1), led_turn_on@pin_obj(1), led_intialization@pin_obj(1),
      + 
  3784 ;;  logic           1    1[COMRAM] enum E2982
  3785 ;; Auto vars:     Size  Location     Type
  3786 ;;  ret             1    7[COMRAM] unsigned char 
  3787 ;; Return value:  Size  Location     Type
  3788 ;;                  1    wreg      unsigned char 
  3789 ;; Registers used:
  3790 ;;		wreg, fsr2l, fsr2h, status,2, status,0, prodl, prodh
  3791 ;; Tracked objects:
  3792 ;;		On entry : 0/0
  3793 ;;		On exit  : 0/0
  3794 ;;		Unchanged: 0/0
  3795 ;; Data sizes:     COMRAM   BANK0   BANK1   BANK2   BANK3   BANK4   BANK5   BANK6   BANK7   BANK8   BANK9  BANK10  BANK1
      +1  BANK12  BANK13  BANK14  BANK15
  3796 ;;      Params:         2       0       0       0       0       0       0       0       0       0       0       0       
      +0       0       0       0       0
  3797 ;;      Locals:         1       0       0       0       0       0       0       0       0       0       0       0       
      +0       0       0       0       0
  3798 ;;      Temps:          5       0       0       0       0       0       0       0       0       0       0       0       
      +0       0       0       0       0
  3799 ;;      Totals:         8       0       0       0       0       0       0       0       0       0       0       0       
      +0       0       0       0       0
  3800 ;;Total ram usage:        8 bytes
  3801 ;; Hardware stack levels used: 1
  3802 ;; This function calls:
  3803 ;;		Nothing
  3804 ;; This function is called by:
  3805 ;;		_led_turn_on
  3806 ;; This function uses a non-reentrant model
  3807 ;;
  3808                           
  3809                           	psect	text25
  3810   001672                     __ptext25:
  3811                           	callstack 0
  3812   001672                     i2_gpio_pin_write_logic:
  3813                           	callstack 20
  3814   001672                     
  3815                           ;MCAL_layer/GPIO/hal_gpio.c: 53:     Std_ReturnType ret = (Std_ReturnType)0x01;
  3816   001672  0E01               	movlw	1
  3817   001674  6E4D               	movwf	i2gpio_pin_write_logic@ret^0,c
  3818                           
  3819                           ;MCAL_layer/GPIO/hal_gpio.c: 54:     if((((void*)0)==pin_config)||((pin_config->pin)>8 -
      +                          1)){
  3820   001676  5046               	movf	i2gpio_pin_write_logic@pin_config^0,w,c
  3821   001678  B4D8               	btfsc	status,2,c
  3822   00167A  EF41  F00B         	goto	i2u530_41
  3823   00167E  EF43  F00B         	goto	i2u530_40
  3824   001682                     i2u530_41:
  3825   001682  EF53  F00B         	goto	i2l6147
  3826   001686                     i2u530_40:
  3827   001686  5046               	movf	i2gpio_pin_write_logic@pin_config^0,w,c
  3828   001688  6ED9               	movwf	fsr2l,c
  3829   00168A  6ADA               	clrf	fsr2h,c
  3830   00168C  30DF               	rrcf	223,w,c
  3831   00168E  32E8               	rrcf	wreg,f,c
  3832   001690  32E8               	rrcf	wreg,f,c
  3833   001692  0B07               	andlw	7
  3834   001694  6E48               	movwf	??i2_gpio_pin_write_logic^0,c
  3835   001696  0E07               	movlw	7
  3836   001698  6448               	cpfsgt	??i2_gpio_pin_write_logic^0,c
  3837   00169A  EF51  F00B         	goto	i2u531_41
  3838   00169E  EF53  F00B         	goto	i2u531_40
  3839   0016A2                     i2u531_41:
  3840   0016A2  EFAA  F00B         	goto	i2l6155
  3841   0016A6                     i2u531_40:
  3842   0016A6                     i2l6147:
  3843                           
  3844                           ;MCAL_layer/GPIO/hal_gpio.c: 55:         ret = (Std_ReturnType)0x00;
  3845   0016A6  0E00               	movlw	0
  3846   0016A8  6E4D               	movwf	i2gpio_pin_write_logic@ret^0,c
  3847                           
  3848                           ;MCAL_layer/GPIO/hal_gpio.c: 56:     }
  3849   0016AA  EFBF  F00B         	goto	i2l6157
  3850   0016AE                     i2l6149:
  3851                           
  3852                           ;MCAL_layer/GPIO/hal_gpio.c: 60:             (*lat_register[pin_config->port] &= ~((uint
      +                          8)1 << pin_config->pin));
  3853   0016AE  5046               	movf	i2gpio_pin_write_logic@pin_config^0,w,c
  3854   0016B0  6ED9               	movwf	fsr2l,c
  3855   0016B2  6ADA               	clrf	fsr2h,c
  3856   0016B4  30DF               	rrcf	223,w,c
  3857   0016B6  32E8               	rrcf	wreg,f,c
  3858   0016B8  32E8               	rrcf	wreg,f,c
  3859   0016BA  0B07               	andlw	7
  3860   0016BC  6E48               	movwf	??i2_gpio_pin_write_logic^0,c
  3861   0016BE  0E01               	movlw	1
  3862   0016C0  6E49               	movwf	(??i2_gpio_pin_write_logic+1)^0,c
  3863   0016C2  2A48               	incf	??i2_gpio_pin_write_logic^0,f,c
  3864   0016C4  EF66  F00B         	goto	i2u532_44
  3865   0016C8                     i2u532_45:
  3866   0016C8  90D8               	bcf	status,0,c
  3867   0016CA  3649               	rlcf	(??i2_gpio_pin_write_logic+1)^0,f,c
  3868   0016CC                     i2u532_44:
  3869   0016CC  2E48               	decfsz	??i2_gpio_pin_write_logic^0,f,c
  3870   0016CE  EF64  F00B         	goto	i2u532_45
  3871   0016D2  5049               	movf	(??i2_gpio_pin_write_logic+1)^0,w,c
  3872   0016D4  0AFF               	xorlw	255
  3873   0016D6  6E4A               	movwf	(??i2_gpio_pin_write_logic+2)^0,c
  3874   0016D8  5046               	movf	i2gpio_pin_write_logic@pin_config^0,w,c
  3875   0016DA  6ED9               	movwf	fsr2l,c
  3876   0016DC  6ADA               	clrf	fsr2h,c
  3877   0016DE  50DF               	movf	223,w,c
  3878   0016E0  0B07               	andlw	7
  3879   0016E2  0D02               	mullw	2
  3880   0016E4  50F3               	movf	243,w,c
  3881   0016E6  0F5E               	addlw	low _lat_register
  3882   0016E8  6ED9               	movwf	fsr2l,c
  3883   0016EA  6ADA               	clrf	fsr2h,c
  3884   0016EC  CFDE F04B          	movff	postinc2,??i2_gpio_pin_write_logic+3
  3885   0016F0  CFDD F04C          	movff	postdec2,??i2_gpio_pin_write_logic+4
  3886   0016F4  C04B  FFD9         	movff	??i2_gpio_pin_write_logic+3,fsr2l
  3887   0016F8  C04C  FFDA         	movff	??i2_gpio_pin_write_logic+4,fsr2h
  3888   0016FC  504A               	movf	(??i2_gpio_pin_write_logic+2)^0,w,c
  3889   0016FE  16DF               	andwf	indf2,f,c
  3890                           
  3891                           ;MCAL_layer/GPIO/hal_gpio.c: 61:             break;
  3892   001700  EFBF  F00B         	goto	i2l6157
  3893   001704                     i2l6151:
  3894                           
  3895                           ;MCAL_layer/GPIO/hal_gpio.c: 64:             (*lat_register[pin_config->port] |=((uint8)
      +                          1 << pin_config->pin));
  3896   001704  5046               	movf	i2gpio_pin_write_logic@pin_config^0,w,c
  3897   001706  6ED9               	movwf	fsr2l,c
  3898   001708  6ADA               	clrf	fsr2h,c
  3899   00170A  30DF               	rrcf	223,w,c
  3900   00170C  32E8               	rrcf	wreg,f,c
  3901   00170E  32E8               	rrcf	wreg,f,c
  3902   001710  0B07               	andlw	7
  3903   001712  6E48               	movwf	??i2_gpio_pin_write_logic^0,c
  3904   001714  0E01               	movlw	1
  3905   001716  6E49               	movwf	(??i2_gpio_pin_write_logic+1)^0,c
  3906   001718  2A48               	incf	??i2_gpio_pin_write_logic^0,f,c
  3907   00171A  EF91  F00B         	goto	i2u533_44
  3908   00171E                     i2u533_45:
  3909   00171E  90D8               	bcf	status,0,c
  3910   001720  3649               	rlcf	(??i2_gpio_pin_write_logic+1)^0,f,c
  3911   001722                     i2u533_44:
  3912   001722  2E48               	decfsz	??i2_gpio_pin_write_logic^0,f,c
  3913   001724  EF8F  F00B         	goto	i2u533_45
  3914   001728  5046               	movf	i2gpio_pin_write_logic@pin_config^0,w,c
  3915   00172A  6ED9               	movwf	fsr2l,c
  3916   00172C  6ADA               	clrf	fsr2h,c
  3917   00172E  50DF               	movf	223,w,c
  3918   001730  0B07               	andlw	7
  3919   001732  0D02               	mullw	2
  3920   001734  50F3               	movf	243,w,c
  3921   001736  0F5E               	addlw	low _lat_register
  3922   001738  6ED9               	movwf	fsr2l,c
  3923   00173A  6ADA               	clrf	fsr2h,c
  3924   00173C  CFDE F04A          	movff	postinc2,??i2_gpio_pin_write_logic+2
  3925   001740  CFDD F04B          	movff	postdec2,??i2_gpio_pin_write_logic+3
  3926   001744  C04A  FFD9         	movff	??i2_gpio_pin_write_logic+2,fsr2l
  3927   001748  C04B  FFDA         	movff	??i2_gpio_pin_write_logic+3,fsr2h
  3928   00174C  5049               	movf	(??i2_gpio_pin_write_logic+1)^0,w,c
  3929   00174E  12DF               	iorwf	indf2,f,c
  3930                           
  3931                           ;MCAL_layer/GPIO/hal_gpio.c: 65:             break;
  3932   001750  EFBF  F00B         	goto	i2l6157
  3933   001754                     i2l6155:
  3934   001754  5047               	movf	i2gpio_pin_write_logic@logic^0,w,c
  3935   001756  6E48               	movwf	??i2_gpio_pin_write_logic^0,c
  3936   001758  6A49               	clrf	(??i2_gpio_pin_write_logic+1)^0,c
  3937                           
  3938                           ; Switch on 2 bytes has been partitioned into a top level switch of size 1, and 1 sub-sw
      +                          itches
  3939                           ; Switch size 1, requested type "simple"
  3940                           ; Number of cases is 1, Range of values is 0 to 0
  3941                           ; switch strategies available:
  3942                           ; Name         Instructions Cycles
  3943                           ; simple_byte            4     3 (average)
  3944                           ;	Chosen strategy is simple_byte
  3945   00175A  5049               	movf	(??i2_gpio_pin_write_logic+1)^0,w,c
  3946   00175C  0A00               	xorlw	0	; case 0
  3947   00175E  B4D8               	btfsc	status,2,c
  3948   001760  EFB4  F00B         	goto	i2l7003
  3949   001764  EF53  F00B         	goto	i2l6147
  3950   001768                     i2l7003:
  3951                           
  3952                           ; Switch size 1, requested type "simple"
  3953                           ; Number of cases is 2, Range of values is 0 to 1
  3954                           ; switch strategies available:
  3955                           ; Name         Instructions Cycles
  3956                           ; simple_byte            7     4 (average)
  3957                           ;	Chosen strategy is simple_byte
  3958   001768  5048               	movf	??i2_gpio_pin_write_logic^0,w,c
  3959   00176A  0A00               	xorlw	0	; case 0
  3960   00176C  B4D8               	btfsc	status,2,c
  3961   00176E  EF57  F00B         	goto	i2l6149
  3962   001772  0A01               	xorlw	1	; case 1
  3963   001774  B4D8               	btfsc	status,2,c
  3964   001776  EF82  F00B         	goto	i2l6151
  3965   00177A  EF53  F00B         	goto	i2l6147
  3966   00177E                     i2l6157:
  3967                           
  3968                           ;MCAL_layer/GPIO/hal_gpio.c: 70:       return (ret);
  3969   00177E  504D               	movf	i2gpio_pin_write_logic@ret^0,w,c
  3970   001780  0012               	return		;funcret
  3971   001782                     __end_ofi2_gpio_pin_write_logic:
  3972                           	callstack 0
  3973                           
  3974 ;; *************** function _SPI_ISR *****************
  3975 ;; Defined at:
  3976 ;;		line 99 in file "MCAL_layer/SPI/hal_spi.c"
  3977 ;; Parameters:    Size  Location     Type
  3978 ;;		None
  3979 ;; Auto vars:     Size  Location     Type
  3980 ;;		None
  3981 ;; Return value:  Size  Location     Type
  3982 ;;                  1    wreg      void 
  3983 ;; Registers used:
  3984 ;;		None
  3985 ;; Tracked objects:
  3986 ;;		On entry : 0/0
  3987 ;;		On exit  : 0/0
  3988 ;;		Unchanged: 0/0
  3989 ;; Data sizes:     COMRAM   BANK0   BANK1   BANK2   BANK3   BANK4   BANK5   BANK6   BANK7   BANK8   BANK9  BANK10  BANK1
      +1  BANK12  BANK13  BANK14  BANK15
  3990 ;;      Params:         0       0       0       0       0       0       0       0       0       0       0       0       
      +0       0       0       0       0
  3991 ;;      Locals:         0       0       0       0       0       0       0       0       0       0       0       0       
      +0       0       0       0       0
  3992 ;;      Temps:          0       0       0       0       0       0       0       0       0       0       0       0       
      +0       0       0       0       0
  3993 ;;      Totals:         0       0       0       0       0       0       0       0       0       0       0       0       
      +0       0       0       0       0
  3994 ;;Total ram usage:        0 bytes
  3995 ;; Hardware stack levels used: 1
  3996 ;; This function calls:
  3997 ;;		Nothing
  3998 ;; This function is called by:
  3999 ;;		_InterruptMangerHigh
  4000 ;; This function uses a non-reentrant model
  4001 ;;
  4002                           
  4003                           	psect	text26
  4004   001FCE                     __ptext26:
  4005                           	callstack 0
  4006   001FCE                     _SPI_ISR:
  4007                           	callstack 23
  4008   001FCE  0012               	return		;funcret
  4009   001FD0                     __end_of_SPI_ISR:
  4010                           	callstack 0
  4011                           
  4012 ;; *************** function _RB7_ISR *****************
  4013 ;; Defined at:
  4014 ;;		line 179 in file "MCAL_layer/Interrupt/mcal_external_interrupt.c"
  4015 ;; Parameters:    Size  Location     Type
  4016 ;;  RB7_source      1    wreg     unsigned char 
  4017 ;; Auto vars:     Size  Location     Type
  4018 ;;  RB7_source      1    0[COMRAM] unsigned char 
  4019 ;; Return value:  Size  Location     Type
  4020 ;;                  1    wreg      void 
  4021 ;; Registers used:
  4022 ;;		wreg, status,2, status,0
  4023 ;; Tracked objects:
  4024 ;;		On entry : 0/0
  4025 ;;		On exit  : 0/0
  4026 ;;		Unchanged: 0/0
  4027 ;; Data sizes:     COMRAM   BANK0   BANK1   BANK2   BANK3   BANK4   BANK5   BANK6   BANK7   BANK8   BANK9  BANK10  BANK1
      +1  BANK12  BANK13  BANK14  BANK15
  4028 ;;      Params:         0       0       0       0       0       0       0       0       0       0       0       0       
      +0       0       0       0       0
  4029 ;;      Locals:         1       0       0       0       0       0       0       0       0       0       0       0       
      +0       0       0       0       0
  4030 ;;      Temps:          0       0       0       0       0       0       0       0       0       0       0       0       
      +0       0       0       0       0
  4031 ;;      Totals:         1       0       0       0       0       0       0       0       0       0       0       0       
      +0       0       0       0       0
  4032 ;;Total ram usage:        1 bytes
  4033 ;; Hardware stack levels used: 1
  4034 ;; This function calls:
  4035 ;;		Nothing
  4036 ;; This function is called by:
  4037 ;;		_InterruptMangerHigh
  4038 ;; This function uses a non-reentrant model
  4039 ;;
  4040                           
  4041                           	psect	text27
  4042   001EEA                     __ptext27:
  4043                           	callstack 0
  4044   001EEA                     _RB7_ISR:
  4045                           	callstack 23
  4046                           
  4047                           ;incstack = 0
  4048                           ;RB7_ISR@RB7_source stored from wreg
  4049   001EEA  6E46               	movwf	RB7_ISR@RB7_source^0,c
  4050   001EEC                     
  4051                           ;MCAL_layer/Interrupt/mcal_external_interrupt.c: 181:      (INTCONbits.RBIF = 0);
  4052   001EEC  90F2               	bcf	242,0,c	;volatile
  4053   001EEE                     
  4054                           ;MCAL_layer/Interrupt/mcal_external_interrupt.c: 185:      if (0 == RB7_source){
  4055   001EEE  5046               	movf	RB7_ISR@RB7_source^0,w,c
  4056   001EF0  A4D8               	btfss	status,2,c
  4057   001EF2  EF7D  F00F         	goto	i2u55_41
  4058   001EF6  EF7F  F00F         	goto	i2u55_40
  4059   001EFA                     i2u55_41:
  4060   001EFA  EF81  F00F         	goto	i2l2895
  4061   001EFE                     i2u55_40:
  4062   001EFE  EF81  F00F         	goto	i2l851
  4063   001F02                     i2l2895:
  4064   001F02                     i2l851:
  4065   001F02  0012               	return		;funcret
  4066   001F04                     __end_of_RB7_ISR:
  4067                           	callstack 0
  4068                           
  4069 ;; *************** function _RB6_ISR *****************
  4070 ;; Defined at:
  4071 ;;		line 153 in file "MCAL_layer/Interrupt/mcal_external_interrupt.c"
  4072 ;; Parameters:    Size  Location     Type
  4073 ;;  RB6_source      1    wreg     unsigned char 
  4074 ;; Auto vars:     Size  Location     Type
  4075 ;;  RB6_source      1    0[COMRAM] unsigned char 
  4076 ;; Return value:  Size  Location     Type
  4077 ;;                  1    wreg      void 
  4078 ;; Registers used:
  4079 ;;		wreg, status,2, status,0
  4080 ;; Tracked objects:
  4081 ;;		On entry : 0/0
  4082 ;;		On exit  : 0/0
  4083 ;;		Unchanged: 0/0
  4084 ;; Data sizes:     COMRAM   BANK0   BANK1   BANK2   BANK3   BANK4   BANK5   BANK6   BANK7   BANK8   BANK9  BANK10  BANK1
      +1  BANK12  BANK13  BANK14  BANK15
  4085 ;;      Params:         0       0       0       0       0       0       0       0       0       0       0       0       
      +0       0       0       0       0
  4086 ;;      Locals:         1       0       0       0       0       0       0       0       0       0       0       0       
      +0       0       0       0       0
  4087 ;;      Temps:          0       0       0       0       0       0       0       0       0       0       0       0       
      +0       0       0       0       0
  4088 ;;      Totals:         1       0       0       0       0       0       0       0       0       0       0       0       
      +0       0       0       0       0
  4089 ;;Total ram usage:        1 bytes
  4090 ;; Hardware stack levels used: 1
  4091 ;; This function calls:
  4092 ;;		Nothing
  4093 ;; This function is called by:
  4094 ;;		_InterruptMangerHigh
  4095 ;; This function uses a non-reentrant model
  4096 ;;
  4097                           
  4098                           	psect	text28
  4099   001F04                     __ptext28:
  4100                           	callstack 0
  4101   001F04                     _RB6_ISR:
  4102                           	callstack 23
  4103                           
  4104                           ;incstack = 0
  4105                           ;RB6_ISR@RB6_source stored from wreg
  4106   001F04  6E46               	movwf	RB6_ISR@RB6_source^0,c
  4107   001F06                     
  4108                           ;MCAL_layer/Interrupt/mcal_external_interrupt.c: 155:      (INTCONbits.RBIF = 0);
  4109   001F06  90F2               	bcf	242,0,c	;volatile
  4110   001F08                     
  4111                           ;MCAL_layer/Interrupt/mcal_external_interrupt.c: 159:      if (0 == RB6_source){
  4112   001F08  5046               	movf	RB6_ISR@RB6_source^0,w,c
  4113   001F0A  A4D8               	btfss	status,2,c
  4114   001F0C  EF8A  F00F         	goto	i2u54_41
  4115   001F10  EF8C  F00F         	goto	i2u54_40
  4116   001F14                     i2u54_41:
  4117   001F14  EF8E  F00F         	goto	i2l2881
  4118   001F18                     i2u54_40:
  4119   001F18  EF8E  F00F         	goto	i2l840
  4120   001F1C                     i2l2881:
  4121   001F1C                     i2l840:
  4122   001F1C  0012               	return		;funcret
  4123   001F1E                     __end_of_RB6_ISR:
  4124                           	callstack 0
  4125                           
  4126 ;; *************** function _RB5_ISR *****************
  4127 ;; Defined at:
  4128 ;;		line 127 in file "MCAL_layer/Interrupt/mcal_external_interrupt.c"
  4129 ;; Parameters:    Size  Location     Type
  4130 ;;  RB5_source      1    wreg     unsigned char 
  4131 ;; Auto vars:     Size  Location     Type
  4132 ;;  RB5_source      1    0[COMRAM] unsigned char 
  4133 ;; Return value:  Size  Location     Type
  4134 ;;                  1    wreg      void 
  4135 ;; Registers used:
  4136 ;;		wreg, status,2, status,0
  4137 ;; Tracked objects:
  4138 ;;		On entry : 0/0
  4139 ;;		On exit  : 0/0
  4140 ;;		Unchanged: 0/0
  4141 ;; Data sizes:     COMRAM   BANK0   BANK1   BANK2   BANK3   BANK4   BANK5   BANK6   BANK7   BANK8   BANK9  BANK10  BANK1
      +1  BANK12  BANK13  BANK14  BANK15
  4142 ;;      Params:         0       0       0       0       0       0       0       0       0       0       0       0       
      +0       0       0       0       0
  4143 ;;      Locals:         1       0       0       0       0       0       0       0       0       0       0       0       
      +0       0       0       0       0
  4144 ;;      Temps:          0       0       0       0       0       0       0       0       0       0       0       0       
      +0       0       0       0       0
  4145 ;;      Totals:         1       0       0       0       0       0       0       0       0       0       0       0       
      +0       0       0       0       0
  4146 ;;Total ram usage:        1 bytes
  4147 ;; Hardware stack levels used: 1
  4148 ;; This function calls:
  4149 ;;		Nothing
  4150 ;; This function is called by:
  4151 ;;		_InterruptMangerHigh
  4152 ;; This function uses a non-reentrant model
  4153 ;;
  4154                           
  4155                           	psect	text29
  4156   001F1E                     __ptext29:
  4157                           	callstack 0
  4158   001F1E                     _RB5_ISR:
  4159                           	callstack 23
  4160                           
  4161                           ;incstack = 0
  4162                           ;RB5_ISR@RB5_source stored from wreg
  4163   001F1E  6E46               	movwf	RB5_ISR@RB5_source^0,c
  4164   001F20                     
  4165                           ;MCAL_layer/Interrupt/mcal_external_interrupt.c: 129:      (INTCONbits.RBIF = 0);
  4166   001F20  90F2               	bcf	242,0,c	;volatile
  4167   001F22                     
  4168                           ;MCAL_layer/Interrupt/mcal_external_interrupt.c: 133:     if (0 == RB5_source){
  4169   001F22  5046               	movf	RB5_ISR@RB5_source^0,w,c
  4170   001F24  A4D8               	btfss	status,2,c
  4171   001F26  EF97  F00F         	goto	i2u53_41
  4172   001F2A  EF99  F00F         	goto	i2u53_40
  4173   001F2E                     i2u53_41:
  4174   001F2E  EF9B  F00F         	goto	i2l2867
  4175   001F32                     i2u53_40:
  4176   001F32  EF9B  F00F         	goto	i2l829
  4177   001F36                     i2l2867:
  4178   001F36                     i2l829:
  4179   001F36  0012               	return		;funcret
  4180   001F38                     __end_of_RB5_ISR:
  4181                           	callstack 0
  4182                           
  4183 ;; *************** function _RB4_ISR *****************
  4184 ;; Defined at:
  4185 ;;		line 101 in file "MCAL_layer/Interrupt/mcal_external_interrupt.c"
  4186 ;; Parameters:    Size  Location     Type
  4187 ;;  RB4_source      1    wreg     unsigned char 
  4188 ;; Auto vars:     Size  Location     Type
  4189 ;;  RB4_source      1    0[COMRAM] unsigned char 
  4190 ;; Return value:  Size  Location     Type
  4191 ;;                  1    wreg      void 
  4192 ;; Registers used:
  4193 ;;		wreg, status,2, status,0
  4194 ;; Tracked objects:
  4195 ;;		On entry : 0/0
  4196 ;;		On exit  : 0/0
  4197 ;;		Unchanged: 0/0
  4198 ;; Data sizes:     COMRAM   BANK0   BANK1   BANK2   BANK3   BANK4   BANK5   BANK6   BANK7   BANK8   BANK9  BANK10  BANK1
      +1  BANK12  BANK13  BANK14  BANK15
  4199 ;;      Params:         0       0       0       0       0       0       0       0       0       0       0       0       
      +0       0       0       0       0
  4200 ;;      Locals:         1       0       0       0       0       0       0       0       0       0       0       0       
      +0       0       0       0       0
  4201 ;;      Temps:          0       0       0       0       0       0       0       0       0       0       0       0       
      +0       0       0       0       0
  4202 ;;      Totals:         1       0       0       0       0       0       0       0       0       0       0       0       
      +0       0       0       0       0
  4203 ;;Total ram usage:        1 bytes
  4204 ;; Hardware stack levels used: 1
  4205 ;; This function calls:
  4206 ;;		Nothing
  4207 ;; This function is called by:
  4208 ;;		_InterruptMangerHigh
  4209 ;; This function uses a non-reentrant model
  4210 ;;
  4211                           
  4212                           	psect	text30
  4213   001F38                     __ptext30:
  4214                           	callstack 0
  4215   001F38                     _RB4_ISR:
  4216                           	callstack 23
  4217                           
  4218                           ;incstack = 0
  4219                           ;RB4_ISR@RB4_source stored from wreg
  4220   001F38  6E46               	movwf	RB4_ISR@RB4_source^0,c
  4221   001F3A                     
  4222                           ;MCAL_layer/Interrupt/mcal_external_interrupt.c: 103:      (INTCONbits.RBIF = 0);
  4223   001F3A  90F2               	bcf	242,0,c	;volatile
  4224   001F3C                     
  4225                           ;MCAL_layer/Interrupt/mcal_external_interrupt.c: 107:      if (0 == RB4_source){
  4226   001F3C  5046               	movf	RB4_ISR@RB4_source^0,w,c
  4227   001F3E  A4D8               	btfss	status,2,c
  4228   001F40  EFA4  F00F         	goto	i2u52_41
  4229   001F44  EFA6  F00F         	goto	i2u52_40
  4230   001F48                     i2u52_41:
  4231   001F48  EFA8  F00F         	goto	i2l2853
  4232   001F4C                     i2u52_40:
  4233   001F4C  EFA8  F00F         	goto	i2l818
  4234   001F50                     i2l2853:
  4235   001F50                     i2l818:
  4236   001F50  0012               	return		;funcret
  4237   001F52                     __end_of_RB4_ISR:
  4238                           	callstack 0
  4239                           
  4240 ;; *************** function _MSSP_I2C_ISR *****************
  4241 ;; Defined at:
  4242 ;;		line 248 in file "MCAL_layer/I2C/hal_i2c.c"
  4243 ;; Parameters:    Size  Location     Type
  4244 ;;		None
  4245 ;; Auto vars:     Size  Location     Type
  4246 ;;		None
  4247 ;; Return value:  Size  Location     Type
  4248 ;;                  1    wreg      void 
  4249 ;; Registers used:
  4250 ;;		None
  4251 ;; Tracked objects:
  4252 ;;		On entry : 0/0
  4253 ;;		On exit  : 0/0
  4254 ;;		Unchanged: 0/0
  4255 ;; Data sizes:     COMRAM   BANK0   BANK1   BANK2   BANK3   BANK4   BANK5   BANK6   BANK7   BANK8   BANK9  BANK10  BANK1
      +1  BANK12  BANK13  BANK14  BANK15
  4256 ;;      Params:         0       0       0       0       0       0       0       0       0       0       0       0       
      +0       0       0       0       0
  4257 ;;      Locals:         0       0       0       0       0       0       0       0       0       0       0       0       
      +0       0       0       0       0
  4258 ;;      Temps:          0       0       0       0       0       0       0       0       0       0       0       0       
      +0       0       0       0       0
  4259 ;;      Totals:         0       0       0       0       0       0       0       0       0       0       0       0       
      +0       0       0       0       0
  4260 ;;Total ram usage:        0 bytes
  4261 ;; Hardware stack levels used: 1
  4262 ;; This function calls:
  4263 ;;		Nothing
  4264 ;; This function is called by:
  4265 ;;		_InterruptMangerHigh
  4266 ;; This function uses a non-reentrant model
  4267 ;;
  4268                           
  4269                           	psect	text31
  4270   001FAA                     __ptext31:
  4271                           	callstack 0
  4272   001FAA                     _MSSP_I2C_ISR:
  4273                           	callstack 23
  4274   001FAA                     
  4275                           ;MCAL_layer/I2C/hal_i2c.c: 250:     (PIR1bits.SSPIF = 0);
  4276   001FAA  969E               	bcf	158,3,c	;volatile
  4277   001FAC  0012               	return		;funcret
  4278   001FAE                     __end_of_MSSP_I2C_ISR:
  4279                           	callstack 0
  4280                           
  4281 ;; *************** function _MSSP_I2C_BC_ISR *****************
  4282 ;; Defined at:
  4283 ;;		line 259 in file "MCAL_layer/I2C/hal_i2c.c"
  4284 ;; Parameters:    Size  Location     Type
  4285 ;;		None
  4286 ;; Auto vars:     Size  Location     Type
  4287 ;;		None
  4288 ;; Return value:  Size  Location     Type
  4289 ;;                  1    wreg      void 
  4290 ;; Registers used:
  4291 ;;		None
  4292 ;; Tracked objects:
  4293 ;;		On entry : 0/0
  4294 ;;		On exit  : 0/0
  4295 ;;		Unchanged: 0/0
  4296 ;; Data sizes:     COMRAM   BANK0   BANK1   BANK2   BANK3   BANK4   BANK5   BANK6   BANK7   BANK8   BANK9  BANK10  BANK1
      +1  BANK12  BANK13  BANK14  BANK15
  4297 ;;      Params:         0       0       0       0       0       0       0       0       0       0       0       0       
      +0       0       0       0       0
  4298 ;;      Locals:         0       0       0       0       0       0       0       0       0       0       0       0       
      +0       0       0       0       0
  4299 ;;      Temps:          0       0       0       0       0       0       0       0       0       0       0       0       
      +0       0       0       0       0
  4300 ;;      Totals:         0       0       0       0       0       0       0       0       0       0       0       0       
      +0       0       0       0       0
  4301 ;;Total ram usage:        0 bytes
  4302 ;; Hardware stack levels used: 1
  4303 ;; This function calls:
  4304 ;;		Nothing
  4305 ;; This function is called by:
  4306 ;;		_InterruptMangerHigh
  4307 ;; This function uses a non-reentrant model
  4308 ;;
  4309                           
  4310                           	psect	text32
  4311   001FAE                     __ptext32:
  4312                           	callstack 0
  4313   001FAE                     _MSSP_I2C_BC_ISR:
  4314                           	callstack 23
  4315   001FAE                     
  4316                           ;MCAL_layer/I2C/hal_i2c.c: 261:     (PIR2bits.BCLIF = 0);
  4317   001FAE  96A1               	bcf	161,3,c	;volatile
  4318   001FB0  0012               	return		;funcret
  4319   001FB2                     __end_of_MSSP_I2C_BC_ISR:
  4320                           	callstack 0
  4321                           
  4322 ;; *************** function _INT2_ISR *****************
  4323 ;; Defined at:
  4324 ;;		line 88 in file "MCAL_layer/Interrupt/mcal_external_interrupt.c"
  4325 ;; Parameters:    Size  Location     Type
  4326 ;;		None
  4327 ;; Auto vars:     Size  Location     Type
  4328 ;;		None
  4329 ;; Return value:  Size  Location     Type
  4330 ;;                  1    wreg      void 
  4331 ;; Registers used:
  4332 ;;		None
  4333 ;; Tracked objects:
  4334 ;;		On entry : 0/0
  4335 ;;		On exit  : 0/0
  4336 ;;		Unchanged: 0/0
  4337 ;; Data sizes:     COMRAM   BANK0   BANK1   BANK2   BANK3   BANK4   BANK5   BANK6   BANK7   BANK8   BANK9  BANK10  BANK1
      +1  BANK12  BANK13  BANK14  BANK15
  4338 ;;      Params:         0       0       0       0       0       0       0       0       0       0       0       0       
      +0       0       0       0       0
  4339 ;;      Locals:         0       0       0       0       0       0       0       0       0       0       0       0       
      +0       0       0       0       0
  4340 ;;      Temps:          0       0       0       0       0       0       0       0       0       0       0       0       
      +0       0       0       0       0
  4341 ;;      Totals:         0       0       0       0       0       0       0       0       0       0       0       0       
      +0       0       0       0       0
  4342 ;;Total ram usage:        0 bytes
  4343 ;; Hardware stack levels used: 1
  4344 ;; This function calls:
  4345 ;;		Nothing
  4346 ;; This function is called by:
  4347 ;;		_InterruptMangerHigh
  4348 ;; This function uses a non-reentrant model
  4349 ;;
  4350                           
  4351                           	psect	text33
  4352   001FB2                     __ptext33:
  4353                           	callstack 0
  4354   001FB2                     _INT2_ISR:
  4355                           	callstack 23
  4356   001FB2                     
  4357                           ;MCAL_layer/Interrupt/mcal_external_interrupt.c: 90:      (INTCON3bits.INT2IF = 0);
  4358   001FB2  92F0               	bcf	240,1,c	;volatile
  4359   001FB4  0012               	return		;funcret
  4360   001FB6                     __end_of_INT2_ISR:
  4361                           	callstack 0
  4362                           
  4363 ;; *************** function _INT1_ISR *****************
  4364 ;; Defined at:
  4365 ;;		line 75 in file "MCAL_layer/Interrupt/mcal_external_interrupt.c"
  4366 ;; Parameters:    Size  Location     Type
  4367 ;;		None
  4368 ;; Auto vars:     Size  Location     Type
  4369 ;;		None
  4370 ;; Return value:  Size  Location     Type
  4371 ;;                  1    wreg      void 
  4372 ;; Registers used:
  4373 ;;		None
  4374 ;; Tracked objects:
  4375 ;;		On entry : 0/0
  4376 ;;		On exit  : 0/0
  4377 ;;		Unchanged: 0/0
  4378 ;; Data sizes:     COMRAM   BANK0   BANK1   BANK2   BANK3   BANK4   BANK5   BANK6   BANK7   BANK8   BANK9  BANK10  BANK1
      +1  BANK12  BANK13  BANK14  BANK15
  4379 ;;      Params:         0       0       0       0       0       0       0       0       0       0       0       0       
      +0       0       0       0       0
  4380 ;;      Locals:         0       0       0       0       0       0       0       0       0       0       0       0       
      +0       0       0       0       0
  4381 ;;      Temps:          0       0       0       0       0       0       0       0       0       0       0       0       
      +0       0       0       0       0
  4382 ;;      Totals:         0       0       0       0       0       0       0       0       0       0       0       0       
      +0       0       0       0       0
  4383 ;;Total ram usage:        0 bytes
  4384 ;; Hardware stack levels used: 1
  4385 ;; This function calls:
  4386 ;;		Nothing
  4387 ;; This function is called by:
  4388 ;;		_InterruptMangerHigh
  4389 ;; This function uses a non-reentrant model
  4390 ;;
  4391                           
  4392                           	psect	text34
  4393   001FB6                     __ptext34:
  4394                           	callstack 0
  4395   001FB6                     _INT1_ISR:
  4396                           	callstack 23
  4397   001FB6                     
  4398                           ;MCAL_layer/Interrupt/mcal_external_interrupt.c: 77:      (INTCON3bits.INT1IF = 0);
  4399   001FB6  90F0               	bcf	240,0,c	;volatile
  4400   001FB8  0012               	return		;funcret
  4401   001FBA                     __end_of_INT1_ISR:
  4402                           	callstack 0
  4403                           
  4404 ;; *************** function _INT0_ISR *****************
  4405 ;; Defined at:
  4406 ;;		line 62 in file "MCAL_layer/Interrupt/mcal_external_interrupt.c"
  4407 ;; Parameters:    Size  Location     Type
  4408 ;;		None
  4409 ;; Auto vars:     Size  Location     Type
  4410 ;;		None
  4411 ;; Return value:  Size  Location     Type
  4412 ;;                  1    wreg      void 
  4413 ;; Registers used:
  4414 ;;		None
  4415 ;; Tracked objects:
  4416 ;;		On entry : 0/0
  4417 ;;		On exit  : 0/0
  4418 ;;		Unchanged: 0/0
  4419 ;; Data sizes:     COMRAM   BANK0   BANK1   BANK2   BANK3   BANK4   BANK5   BANK6   BANK7   BANK8   BANK9  BANK10  BANK1
      +1  BANK12  BANK13  BANK14  BANK15
  4420 ;;      Params:         0       0       0       0       0       0       0       0       0       0       0       0       
      +0       0       0       0       0
  4421 ;;      Locals:         0       0       0       0       0       0       0       0       0       0       0       0       
      +0       0       0       0       0
  4422 ;;      Temps:          0       0       0       0       0       0       0       0       0       0       0       0       
      +0       0       0       0       0
  4423 ;;      Totals:         0       0       0       0       0       0       0       0       0       0       0       0       
      +0       0       0       0       0
  4424 ;;Total ram usage:        0 bytes
  4425 ;; Hardware stack levels used: 1
  4426 ;; This function calls:
  4427 ;;		Nothing
  4428 ;; This function is called by:
  4429 ;;		_InterruptMangerHigh
  4430 ;; This function uses a non-reentrant model
  4431 ;;
  4432                           
  4433                           	psect	text35
  4434   001FBA                     __ptext35:
  4435                           	callstack 0
  4436   001FBA                     _INT0_ISR:
  4437                           	callstack 23
  4438   001FBA                     
  4439                           ;MCAL_layer/Interrupt/mcal_external_interrupt.c: 64:      (INTCONbits.INT0IF = 0);
  4440   001FBA  92F2               	bcf	242,1,c	;volatile
  4441   001FBC  0012               	return		;funcret
  4442   001FBE                     __end_of_INT0_ISR:
  4443                           	callstack 0
  4444                           
  4445 ;; *************** function _EUSART_Tx_ISR *****************
  4446 ;; Defined at:
  4447 ;;		line 260 in file "MCAL_layer/USART/hal_usart.c"
  4448 ;; Parameters:    Size  Location     Type
  4449 ;;		None
  4450 ;; Auto vars:     Size  Location     Type
  4451 ;;		None
  4452 ;; Return value:  Size  Location     Type
  4453 ;;                  1    wreg      void 
  4454 ;; Registers used:
  4455 ;;		None
  4456 ;; Tracked objects:
  4457 ;;		On entry : 0/0
  4458 ;;		On exit  : 0/0
  4459 ;;		Unchanged: 0/0
  4460 ;; Data sizes:     COMRAM   BANK0   BANK1   BANK2   BANK3   BANK4   BANK5   BANK6   BANK7   BANK8   BANK9  BANK10  BANK1
      +1  BANK12  BANK13  BANK14  BANK15
  4461 ;;      Params:         0       0       0       0       0       0       0       0       0       0       0       0       
      +0       0       0       0       0
  4462 ;;      Locals:         0       0       0       0       0       0       0       0       0       0       0       0       
      +0       0       0       0       0
  4463 ;;      Temps:          0       0       0       0       0       0       0       0       0       0       0       0       
      +0       0       0       0       0
  4464 ;;      Totals:         0       0       0       0       0       0       0       0       0       0       0       0       
      +0       0       0       0       0
  4465 ;;Total ram usage:        0 bytes
  4466 ;; Hardware stack levels used: 1
  4467 ;; This function calls:
  4468 ;;		Nothing
  4469 ;; This function is called by:
  4470 ;;		_InterruptMangerHigh
  4471 ;; This function uses a non-reentrant model
  4472 ;;
  4473                           
  4474                           	psect	text36
  4475   001FBE                     __ptext36:
  4476                           	callstack 0
  4477   001FBE                     _EUSART_Tx_ISR:
  4478                           	callstack 23
  4479   001FBE                     
  4480                           ;MCAL_layer/USART/hal_usart.c: 261:     (PIE1bits.TXIE = 0);
  4481   001FBE  989D               	bcf	157,4,c	;volatile
  4482   001FC0  0012               	return		;funcret
  4483   001FC2                     __end_of_EUSART_Tx_ISR:
  4484                           	callstack 0
  4485                           
  4486 ;; *************** function _EUSART_Rx_ISR *****************
  4487 ;; Defined at:
  4488 ;;		line 269 in file "MCAL_layer/USART/hal_usart.c"
  4489 ;; Parameters:    Size  Location     Type
  4490 ;;		None
  4491 ;; Auto vars:     Size  Location     Type
  4492 ;;		None
  4493 ;; Return value:  Size  Location     Type
  4494 ;;                  1    wreg      void 
  4495 ;; Registers used:
  4496 ;;		wreg, status,2, status,0
  4497 ;; Tracked objects:
  4498 ;;		On entry : 0/0
  4499 ;;		On exit  : 0/0
  4500 ;;		Unchanged: 0/0
  4501 ;; Data sizes:     COMRAM   BANK0   BANK1   BANK2   BANK3   BANK4   BANK5   BANK6   BANK7   BANK8   BANK9  BANK10  BANK1
      +1  BANK12  BANK13  BANK14  BANK15
  4502 ;;      Params:         0       0       0       0       0       0       0       0       0       0       0       0       
      +0       0       0       0       0
  4503 ;;      Locals:         0       0       0       0       0       0       0       0       0       0       0       0       
      +0       0       0       0       0
  4504 ;;      Temps:          0       0       0       0       0       0       0       0       0       0       0       0       
      +0       0       0       0       0
  4505 ;;      Totals:         0       0       0       0       0       0       0       0       0       0       0       0       
      +0       0       0       0       0
  4506 ;;Total ram usage:        0 bytes
  4507 ;; Hardware stack levels used: 1
  4508 ;; This function calls:
  4509 ;;		Nothing
  4510 ;; This function is called by:
  4511 ;;		_InterruptMangerHigh
  4512 ;; This function uses a non-reentrant model
  4513 ;;
  4514                           
  4515                           	psect	text37
  4516   001FD0                     __ptext37:
  4517                           	callstack 0
  4518   001FD0                     _EUSART_Rx_ISR:
  4519                           	callstack 23
  4520   001FD0  0012               	return		;funcret
  4521   001FD2                     __end_of_EUSART_Rx_ISR:
  4522                           	callstack 0
  4523                           
  4524 ;; *************** function _CCP2_ISR *****************
  4525 ;; Defined at:
  4526 ;;		line 247 in file "MCAL_layer/CCP1/hal_ccp1.c"
  4527 ;; Parameters:    Size  Location     Type
  4528 ;;		None
  4529 ;; Auto vars:     Size  Location     Type
  4530 ;;		None
  4531 ;; Return value:  Size  Location     Type
  4532 ;;                  1    wreg      void 
  4533 ;; Registers used:
  4534 ;;		None
  4535 ;; Tracked objects:
  4536 ;;		On entry : 0/0
  4537 ;;		On exit  : 0/0
  4538 ;;		Unchanged: 0/0
  4539 ;; Data sizes:     COMRAM   BANK0   BANK1   BANK2   BANK3   BANK4   BANK5   BANK6   BANK7   BANK8   BANK9  BANK10  BANK1
      +1  BANK12  BANK13  BANK14  BANK15
  4540 ;;      Params:         0       0       0       0       0       0       0       0       0       0       0       0       
      +0       0       0       0       0
  4541 ;;      Locals:         0       0       0       0       0       0       0       0       0       0       0       0       
      +0       0       0       0       0
  4542 ;;      Temps:          0       0       0       0       0       0       0       0       0       0       0       0       
      +0       0       0       0       0
  4543 ;;      Totals:         0       0       0       0       0       0       0       0       0       0       0       0       
      +0       0       0       0       0
  4544 ;;Total ram usage:        0 bytes
  4545 ;; Hardware stack levels used: 1
  4546 ;; This function calls:
  4547 ;;		Nothing
  4548 ;; This function is called by:
  4549 ;;		_InterruptMangerHigh
  4550 ;; This function uses a non-reentrant model
  4551 ;;
  4552                           
  4553                           	psect	text38
  4554   001FC2                     __ptext38:
  4555                           	callstack 0
  4556   001FC2                     _CCP2_ISR:
  4557                           	callstack 23
  4558   001FC2                     
  4559                           ;MCAL_layer/CCP1/hal_ccp1.c: 248:     (PIR2bits.CCP2IF = 0);
  4560   001FC2  90A1               	bcf	161,0,c	;volatile
  4561   001FC4  0012               	return		;funcret
  4562   001FC6                     __end_of_CCP2_ISR:
  4563                           	callstack 0
  4564                           
  4565 ;; *************** function _CCP1_ISR *****************
  4566 ;; Defined at:
  4567 ;;		line 238 in file "MCAL_layer/CCP1/hal_ccp1.c"
  4568 ;; Parameters:    Size  Location     Type
  4569 ;;		None
  4570 ;; Auto vars:     Size  Location     Type
  4571 ;;		None
  4572 ;; Return value:  Size  Location     Type
  4573 ;;                  1    wreg      void 
  4574 ;; Registers used:
  4575 ;;		None
  4576 ;; Tracked objects:
  4577 ;;		On entry : 0/0
  4578 ;;		On exit  : 0/0
  4579 ;;		Unchanged: 0/0
  4580 ;; Data sizes:     COMRAM   BANK0   BANK1   BANK2   BANK3   BANK4   BANK5   BANK6   BANK7   BANK8   BANK9  BANK10  BANK1
      +1  BANK12  BANK13  BANK14  BANK15
  4581 ;;      Params:         0       0       0       0       0       0       0       0       0       0       0       0       
      +0       0       0       0       0
  4582 ;;      Locals:         0       0       0       0       0       0       0       0       0       0       0       0       
      +0       0       0       0       0
  4583 ;;      Temps:          0       0       0       0       0       0       0       0       0       0       0       0       
      +0       0       0       0       0
  4584 ;;      Totals:         0       0       0       0       0       0       0       0       0       0       0       0       
      +0       0       0       0       0
  4585 ;;Total ram usage:        0 bytes
  4586 ;; Hardware stack levels used: 1
  4587 ;; This function calls:
  4588 ;;		Nothing
  4589 ;; This function is called by:
  4590 ;;		_InterruptMangerHigh
  4591 ;; This function uses a non-reentrant model
  4592 ;;
  4593                           
  4594                           	psect	text39
  4595   001FC6                     __ptext39:
  4596                           	callstack 0
  4597   001FC6                     _CCP1_ISR:
  4598                           	callstack 23
  4599   001FC6                     
  4600                           ;MCAL_layer/CCP1/hal_ccp1.c: 239:     (PIR1bits.CCP1IF = 0);
  4601   001FC6  949E               	bcf	158,2,c	;volatile
  4602   001FC8  0012               	return		;funcret
  4603   001FCA                     __end_of_CCP1_ISR:
  4604                           	callstack 0
  4605                           
  4606 ;; *************** function _ADC_ISR *****************
  4607 ;; Defined at:
  4608 ;;		line 223 in file "MCAL_layer/ADC/hal_adc.c"
  4609 ;; Parameters:    Size  Location     Type
  4610 ;;		None
  4611 ;; Auto vars:     Size  Location     Type
  4612 ;;		None
  4613 ;; Return value:  Size  Location     Type
  4614 ;;                  1    wreg      void 
  4615 ;; Registers used:
  4616 ;;		None
  4617 ;; Tracked objects:
  4618 ;;		On entry : 0/0
  4619 ;;		On exit  : 0/0
  4620 ;;		Unchanged: 0/0
  4621 ;; Data sizes:     COMRAM   BANK0   BANK1   BANK2   BANK3   BANK4   BANK5   BANK6   BANK7   BANK8   BANK9  BANK10  BANK1
      +1  BANK12  BANK13  BANK14  BANK15
  4622 ;;      Params:         0       0       0       0       0       0       0       0       0       0       0       0       
      +0       0       0       0       0
  4623 ;;      Locals:         0       0       0       0       0       0       0       0       0       0       0       0       
      +0       0       0       0       0
  4624 ;;      Temps:          0       0       0       0       0       0       0       0       0       0       0       0       
      +0       0       0       0       0
  4625 ;;      Totals:         0       0       0       0       0       0       0       0       0       0       0       0       
      +0       0       0       0       0
  4626 ;;Total ram usage:        0 bytes
  4627 ;; Hardware stack levels used: 1
  4628 ;; This function calls:
  4629 ;;		Nothing
  4630 ;; This function is called by:
  4631 ;;		_InterruptMangerHigh
  4632 ;; This function uses a non-reentrant model
  4633 ;;
  4634                           
  4635                           	psect	text40
  4636   001FCA                     __ptext40:
  4637                           	callstack 0
  4638   001FCA                     _ADC_ISR:
  4639                           	callstack 23
  4640   001FCA                     
  4641                           ;MCAL_layer/ADC/hal_adc.c: 224:     (PIR1bits.ADIF = 0);
  4642   001FCA  9C9E               	bcf	158,6,c	;volatile
  4643   001FCC  0012               	return		;funcret
  4644   001FCE                     __end_of_ADC_ISR:
  4645                           	callstack 0
  4646                           
  4647                           	psect	rparam
  4648   000000                     
  4649                           	psect	temp
  4650   00006E                     btemp:
  4651                           	callstack 0
  4652   00006E                     	ds	1
  4653   000000                     int$flags	set	btemp
  4654   000000                     wtemp8	set	btemp+1
  4655   000000                     ttemp5	set	btemp+1
  4656   000000                     ttemp6	set	btemp+4
  4657   000000                     ttemp7	set	btemp+8
  4658                           
  4659                           	psect	config
  4660                           
  4661                           ; Padding undefined space
  4662   300000                     	org	3145728
  4663   300000  FF                 	db	255
  4664                           
  4665                           ;Config register CONFIG1H @ 0x300001
  4666                           ;	Oscillator Selection bits
  4667                           ;	OSC = HS, HS oscillator
  4668                           ;	Fail-Safe Clock Monitor Enable bit
  4669                           ;	FCMEN = OFF, Fail-Safe Clock Monitor disabled
  4670                           ;	Internal/External Oscillator Switchover bit
  4671                           ;	IESO = OFF, Oscillator Switchover mode disabled
  4672   300001                     	org	3145729
  4673   300001  02                 	db	2
  4674                           
  4675                           ;Config register CONFIG2L @ 0x300002
  4676                           ;	Power-up Timer Enable bit
  4677                           ;	PWRT = OFF, PWRT disabled
  4678                           ;	Brown-out Reset Enable bits
  4679                           ;	BOREN = OFF, Brown-out Reset disabled in hardware and software
  4680                           ;	Brown Out Reset Voltage bits
  4681                           ;	BORV = 1, 
  4682   300002                     	org	3145730
  4683   300002  09                 	db	9
  4684                           
  4685                           ;Config register CONFIG2H @ 0x300003
  4686                           ;	Watchdog Timer Enable bit
  4687                           ;	WDT = OFF, WDT disabled (control is placed on the SWDTEN bit)
  4688                           ;	Watchdog Timer Postscale Select bits
  4689                           ;	WDTPS = 32768, 1:32768
  4690   300003                     	org	3145731
  4691   300003  1E                 	db	30
  4692                           
  4693                           ; Padding undefined space
  4694   300004                     	org	3145732
  4695   300004  FF                 	db	255
  4696                           
  4697                           ;Config register CONFIG3H @ 0x300005
  4698                           ;	CCP2 MUX bit
  4699                           ;	CCP2MX = PORTC, CCP2 input/output is multiplexed with RC1
  4700                           ;	PORTB A/D Enable bit
  4701                           ;	PBADEN = OFF, PORTB<4:0> pins are configured as digital I/O on Reset
  4702                           ;	Low-Power Timer1 Oscillator Enable bit
  4703                           ;	LPT1OSC = OFF, Timer1 configured for higher power operation
  4704                           ;	MCLR Pin Enable bit
  4705                           ;	MCLRE = ON, MCLR pin enabled; RE3 input pin disabled
  4706   300005                     	org	3145733
  4707   300005  81                 	db	129
  4708                           
  4709                           ;Config register CONFIG4L @ 0x300006
  4710                           ;	Stack Full/Underflow Reset Enable bit
  4711                           ;	STVREN = ON, Stack full/underflow will cause Reset
  4712                           ;	Single-Supply ICSP Enable bit
  4713                           ;	LVP = OFF, Single-Supply ICSP disabled
  4714                           ;	Extended Instruction Set Enable bit
  4715                           ;	XINST = OFF, Instruction set extension and Indexed Addressing mode disabled (Legacy mo
      +                          de)
  4716                           ;	Background Debugger Enable bit
  4717                           ;	DEBUG = 0x1, unprogrammed default
  4718   300006                     	org	3145734
  4719   300006  81                 	db	129
  4720                           
  4721                           ; Padding undefined space
  4722   300007                     	org	3145735
  4723   300007  FF                 	db	255
  4724                           
  4725                           ;Config register CONFIG5L @ 0x300008
  4726                           ;	Code Protection bit
  4727                           ;	CP0 = OFF, Block 0 (000800-003FFFh) not code-protected
  4728                           ;	Code Protection bit
  4729                           ;	CP1 = OFF, Block 1 (004000-007FFFh) not code-protected
  4730                           ;	Code Protection bit
  4731                           ;	CP2 = OFF, Block 2 (008000-00BFFFh) not code-protected
  4732                           ;	Code Protection bit
  4733                           ;	CP3 = OFF, Block 3 (00C000-00FFFFh) not code-protected
  4734   300008                     	org	3145736
  4735   300008  0F                 	db	15
  4736                           
  4737                           ;Config register CONFIG5H @ 0x300009
  4738                           ;	Boot Block Code Protection bit
  4739                           ;	CPB = OFF, Boot block (000000-0007FFh) not code-protected
  4740                           ;	Data EEPROM Code Protection bit
  4741                           ;	CPD = OFF, Data EEPROM not code-protected
  4742   300009                     	org	3145737
  4743   300009  C0                 	db	192
  4744                           
  4745                           ;Config register CONFIG6L @ 0x30000A
  4746                           ;	Write Protection bit
  4747                           ;	WRT0 = OFF, Block 0 (000800-003FFFh) not write-protected
  4748                           ;	Write Protection bit
  4749                           ;	WRT1 = OFF, Block 1 (004000-007FFFh) not write-protected
  4750                           ;	Write Protection bit
  4751                           ;	WRT2 = OFF, Block 2 (008000-00BFFFh) not write-protected
  4752                           ;	Write Protection bit
  4753                           ;	WRT3 = OFF, Block 3 (00C000-00FFFFh) not write-protected
  4754   30000A                     	org	3145738
  4755   30000A  0F                 	db	15
  4756                           
  4757                           ;Config register CONFIG6H @ 0x30000B
  4758                           ;	Configuration Register Write Protection bit
  4759                           ;	WRTC = OFF, Configuration registers (300000-3000FFh) not write-protected
  4760                           ;	Boot Block Write Protection bit
  4761                           ;	WRTB = OFF, Boot Block (000000-0007FFh) not write-protected
  4762                           ;	Data EEPROM Write Protection bit
  4763                           ;	WRTD = OFF, Data EEPROM not write-protected
  4764   30000B                     	org	3145739
  4765   30000B  E0                 	db	224
  4766                           
  4767                           ;Config register CONFIG7L @ 0x30000C
  4768                           ;	Table Read Protection bit
  4769                           ;	EBTR0 = OFF, Block 0 (000800-003FFFh) not protected from table reads executed in other
      +                           blocks
  4770                           ;	Table Read Protection bit
  4771                           ;	EBTR1 = OFF, Block 1 (004000-007FFFh) not protected from table reads executed in other
      +                           blocks
  4772                           ;	Table Read Protection bit
  4773                           ;	EBTR2 = OFF, Block 2 (008000-00BFFFh) not protected from table reads executed in other
      +                           blocks
  4774                           ;	Table Read Protection bit
  4775                           ;	EBTR3 = OFF, Block 3 (00C000-00FFFFh) not protected from table reads executed in other
      +                           blocks
  4776   30000C                     	org	3145740
  4777   30000C  0F                 	db	15
  4778                           
  4779                           ;Config register CONFIG7H @ 0x30000D
  4780                           ;	Boot Block Table Read Protection bit
  4781                           ;	EBTRB = OFF, Boot Block (000000-0007FFh) not protected from table reads executed in ot
      +                          her blocks
  4782   30000D                     	org	3145741
  4783   30000D  40                 	db	64
  4784                           tosu	equ	0xFFF
  4785                           tosh	equ	0xFFE
  4786                           tosl	equ	0xFFD
  4787                           stkptr	equ	0xFFC
  4788                           pclatu	equ	0xFFB
  4789                           pclath	equ	0xFFA
  4790                           pcl	equ	0xFF9
  4791                           tblptru	equ	0xFF8
  4792                           tblptrh	equ	0xFF7
  4793                           tblptrl	equ	0xFF6
  4794                           tablat	equ	0xFF5
  4795                           prodh	equ	0xFF4
  4796                           prodl	equ	0xFF3
  4797                           indf0	equ	0xFEF
  4798                           postinc0	equ	0xFEE
  4799                           postdec0	equ	0xFED
  4800                           preinc0	equ	0xFEC
  4801                           plusw0	equ	0xFEB
  4802                           fsr0h	equ	0xFEA
  4803                           fsr0l	equ	0xFE9
  4804                           wreg	equ	0xFE8
  4805                           indf1	equ	0xFE7
  4806                           postinc1	equ	0xFE6
  4807                           postdec1	equ	0xFE5
  4808                           preinc1	equ	0xFE4
  4809                           plusw1	equ	0xFE3
  4810                           fsr1h	equ	0xFE2
  4811                           fsr1l	equ	0xFE1
  4812                           bsr	equ	0xFE0
  4813                           indf2	equ	0xFDF
  4814                           postinc2	equ	0xFDE
  4815                           postdec2	equ	0xFDD
  4816                           preinc2	equ	0xFDC
  4817                           plusw2	equ	0xFDB
  4818                           fsr2h	equ	0xFDA
  4819                           fsr2l	equ	0xFD9
  4820                           status	equ	0xFD8

Data Sizes:
    Strings     3
    Constant    16
    Data        58
    BSS         75
    Persistent  1
    Stack       0

Auto Spaces:
    Space          Size  Autos    Used
    COMRAM          126     24     109
    BANK0           128     13      62
    BANK1           256      0       0
    BANK2           256      0       0
    BANK3           256      0       0
    BANK4           256      0       0
    BANK5           256      0       0
    BANK6           256      0       0
    BANK7           256      0       0
    BANK8           256      0       0
    BANK9           256      0       0
    BANK10          256      0       0
    BANK11          256      0       0
    BANK12          256      0       0
    BANK13          256      0       0
    BANK14          256      0       0
    BANK15          128      0       0

Pointer List with Targets:

    ADC_GetConversionResult@_adc$ADC_InterruptHandler	PTR FTN()void  size(2) Largest target is 0

    ADC_Init@_adc$ADC_InterruptHandler	PTR FTN()void  size(2) Largest target is 0

    ADC_InterruptHandler	PTR FTN()void  size(2) Largest target is 1
		 -> NULL(), 

    CCP1_InterruptHandler	PTR FTN()void  size(2) Largest target is 1
		 -> NULL(), 

    CCP2_InterruptHandler	PTR FTN()void  size(2) Largest target is 1
		 -> NULL(), 

    CCP_Capture_mode_config@_ccp_obj$CCP1_InterruptHandler	PTR FTN()void  size(2) Largest target is 0

    CCP_Capture_mode_config@_ccp_obj$CCP2_InterruptHandler	PTR FTN()void  size(2) Largest target is 0

    CCP_Compare_mode_config@_ccp_obj$CCP1_InterruptHandler	PTR FTN()void  size(2) Largest target is 0

    CCP_Compare_mode_config@_ccp_obj$CCP2_InterruptHandler	PTR FTN()void  size(2) Largest target is 0

    CCP_Compare_Mode_Set_Value@_ccp1_obj$CCP1_InterruptHandler	PTR FTN()void  size(2) Largest target is 0

    CCP_Compare_Mode_Set_Value@_ccp1_obj$CCP2_InterruptHandler	PTR FTN()void  size(2) Largest target is 0

    CCP_DeInit@_ccp1_obj$CCP1_InterruptHandler	PTR FTN()void  size(2) Largest target is 0

    CCP_DeInit@_ccp1_obj$CCP2_InterruptHandler	PTR FTN()void  size(2) Largest target is 0

    CCP_Init@_ccp1_obj$CCP1_InterruptHandler	PTR FTN()void  size(2) Largest target is 0

    CCP_Init@_ccp1_obj$CCP2_InterruptHandler	PTR FTN()void  size(2) Largest target is 0

    CCP_interrupt_config@_ccp_obj$CCP1_InterruptHandler	PTR FTN()void  size(2) Largest target is 0

    CCP_interrupt_config@_ccp_obj$CCP2_InterruptHandler	PTR FTN()void  size(2) Largest target is 0

    CCP_Mode_Timer_Select@_ccp_obj$CCP1_InterruptHandler	PTR FTN()void  size(2) Largest target is 0

    CCP_Mode_Timer_Select@_ccp_obj$CCP2_InterruptHandler	PTR FTN()void  size(2) Largest target is 0

    configure_voltage_reference@_adc$ADC_InterruptHandler	PTR FTN()void  size(2) Largest target is 0

    EUSART_ASYNC_RX_INIT@_eusart$EUSART_FramingErrorHandler	PTR FTN()void  size(2) Largest target is 0

    EUSART_ASYNC_RX_INIT@_eusart$EUSART_OverRunErrorHandler	PTR FTN()void  size(2) Largest target is 0

    EUSART_ASYNC_RX_INIT@_eusart$EUSART_RX_InterruptHandler	PTR FTN()void  size(2) Largest target is 0

    EUSART_ASYNC_RX_INIT@_eusart$EUSART_TX_InterruptHandler	PTR FTN()void  size(2) Largest target is 0

    EUSART_ASYNC_TX_INIT@_eusart$EUSART_FramingErrorHandler	PTR FTN()void  size(2) Largest target is 0

    EUSART_ASYNC_TX_INIT@_eusart$EUSART_OverRunErrorHandler	PTR FTN()void  size(2) Largest target is 0

    EUSART_ASYNC_TX_INIT@_eusart$EUSART_RX_InterruptHandler	PTR FTN()void  size(2) Largest target is 0

    EUSART_ASYNC_TX_INIT@_eusart$EUSART_TX_InterruptHandler	PTR FTN()void  size(2) Largest target is 0

    EUSART_Baud_Rate_Calculation@_eusart$EUSART_FramingErrorHandler	PTR FTN()void  size(2) Largest target is 0

    EUSART_Baud_Rate_Calculation@_eusart$EUSART_OverRunErrorHandler	PTR FTN()void  size(2) Largest target is 0

    EUSART_Baud_Rate_Calculation@_eusart$EUSART_RX_InterruptHandler	PTR FTN()void  size(2) Largest target is 0

    EUSART_Baud_Rate_Calculation@_eusart$EUSART_TX_InterruptHandler	PTR FTN()void  size(2) Largest target is 0

    EUSART_FramingError_InterruptHandler	PTR FTN()void  size(2) Largest target is 1
		 -> NULL(), 

    EUSART_OverRunError_InterruptHandler	PTR FTN()void  size(2) Largest target is 1
		 -> NULL(), 

    EUSART_RX_InterruptHandler	PTR FTN()void  size(2) Largest target is 1
		 -> NULL(), 

    EUSART_TX_InterruptHandler	PTR FTN()void  size(2) Largest target is 1
		 -> NULL(), 

    f$.$buffer	PTR unsigned char  size(2) Largest target is 0

    f$.$source	PTR const unsigned char  size(2) Largest target is 0

    gpio_pin_direction_intialize@pin_config	PTR const struct . size(1) Largest target is 10
		 -> lcd_1(BANK0[6]), lcd_1$LCD_data(BANK0[4]), lcd_2(BANK0[10]), lcd_2$LCD_data(BANK0[8]), 
		 -> led_intialization@pin_obj(BANK0[1]), relay_intialization@relay_obj(COMRAM[1]), 

    gpio_pin_intialize@pin_config	PTR const struct . size(1) Largest target is 10
		 -> lcd_1(BANK0[6]), lcd_1$LCD_data(BANK0[4]), lcd_2(BANK0[10]), lcd_2$LCD_data(BANK0[8]), 
		 -> led_intialization@pin_obj(BANK0[1]), relay_intialization@relay_obj(COMRAM[1]), 

    gpio_pin_write_logic@pin_config	PTR const struct . size(1) Largest target is 10
		 -> lcd_1(BANK0[6]), lcd_1$LCD_data(BANK0[4]), lcd_2(BANK0[10]), lcd_2$LCD_data(BANK0[8]), 
		 -> led_intialization@pin_obj(BANK0[1]), led_turn_off@pin_obj(COMRAM[1]), led_turn_on@pin_obj(COMRAM[1]), relay_intialization@relay_obj(COMRAM[1]), 
		 -> relay_turn_off@relay_obj(COMRAM[1]), relay_turn_on@relay_obj(COMRAM[1]), 

    I2C_InterruptHandler	PTR FTN()void  size(2) Largest target is 1
		 -> NULL(), 

    I2C_Report_Receive_Overflow_InterruptHandle	PTR FTN()void  size(2) Largest target is 1
		 -> NULL(), 

    I2C_Report_Write_Collision_InterruptHandler	PTR FTN()void  size(2) Largest target is 1
		 -> NULL(), 

    INT0_InterruptHandler	PTR FTN()void  size(2) Largest target is 1
		 -> NULL(), 

    INT1_InterruptHandler	PTR FTN()void  size(2) Largest target is 1
		 -> NULL(), 

    INT2_InterruptHandler	PTR FTN()void  size(2) Largest target is 1
		 -> NULL(), 

    interrupt_INTx_Clear_Flag@inturrpt_obj$EXT_InterruptHandler	PTR FTN()void  size(2) Largest target is 0

    interrupt_INTx_Disable@inturrpt_obj$EXT_InterruptHandler	PTR FTN()void  size(2) Largest target is 0

    interrupt_INTx_Edge_Init@inturrpt_obj$EXT_InterruptHandler	PTR FTN()void  size(2) Largest target is 0

    interrupt_INTx_Enable@inturrpt_obj$EXT_InterruptHandler	PTR FTN()void  size(2) Largest target is 0

    interrupt_INTx_Pin_Init@inturrpt_obj$EXT_InterruptHandler	PTR FTN()void  size(2) Largest target is 0

    Interrupt_INTx_SetInterruptHandler@inturrpt_obj$EXT_InterruptHandler	PTR FTN()void  size(2) Largest target is 0

    Interrupt_RBx_Init@inturrpt_obj$EXT_InterruptHandler_HIGH	PTR FTN()void  size(2) Largest target is 0

    Interrupt_RBx_Init@inturrpt_obj$EXT_InterruptHandler_LOW	PTR FTN()void  size(2) Largest target is 0

    lat_register	PTR volatile unsigned char [5] size(2) Largest target is 1
		 -> LATA(BITBIGSFRlllll[1]), LATB(BITBIGSFRllllh[1]), LATC(BITBIGSFRllllh[1]), LATD(BITBIGSFRllllh[1]), 
		 -> LATE(BITBIGSFRllllh[1]), 

    lcd_4bit_intialize@lcd	PTR const struct . size(1) Largest target is 6
		 -> lcd_1(BANK0[6]), 

    lcd_4bit_send_comand@lcd	PTR const struct . size(1) Largest target is 6
		 -> lcd_1(BANK0[6]), 

    lcd_8bit_intialize@lcd	PTR const struct . size(1) Largest target is 10
		 -> lcd_2(BANK0[10]), 

    lcd_8bit_send_comand@lcd	PTR const struct . size(1) Largest target is 10
		 -> lcd_2(BANK0[10]), 

    lcd_send_4_bits@lcd	PTR const struct . size(1) Largest target is 6
		 -> lcd_1(BANK0[6]), 

    lcd_send_4_bits_enable_signal@lcd	PTR const struct . size(1) Largest target is 6
		 -> lcd_1(BANK0[6]), 

    lcd_send_8_bits_enable_signal@lcd	PTR const struct . size(1) Largest target is 10
		 -> lcd_2(BANK0[10]), 

    led_intialization@LED	PTR const struct . size(1) Largest target is 1
		 -> led1(COMRAM[1]), 

    led_turn_on@LED	PTR const struct . size(1) Largest target is 1
		 -> led1(COMRAM[1]), 

    MSSP_I2C_Init@i2c_obj$I2C_InterruptHandler	PTR FTN()void  size(2) Largest target is 0

    MSSP_I2C_Init@i2c_obj$I2C_Report_Receive_Overflow	PTR FTN()void  size(2) Largest target is 0

    MSSP_I2C_Init@i2c_obj$I2C_Report_Write_Collision	PTR FTN()void  size(2) Largest target is 0

    MSSP_I2C_Interrupt_cfg@i2c_obj$I2C_InterruptHandler	PTR FTN()void  size(2) Largest target is 0

    MSSP_I2C_Interrupt_cfg@i2c_obj$I2C_Report_Receive_Overflow	PTR FTN()void  size(2) Largest target is 0

    MSSP_I2C_Interrupt_cfg@i2c_obj$I2C_Report_Write_Collision	PTR FTN()void  size(2) Largest target is 0

    MSSP_I2C_Master_mode_clock_cfg@i2c_obj$I2C_InterruptHandler	PTR FTN()void  size(2) Largest target is 0

    MSSP_I2C_Master_mode_clock_cfg@i2c_obj$I2C_Report_Receive_Overflow	PTR FTN()void  size(2) Largest target is 0

    MSSP_I2C_Master_mode_clock_cfg@i2c_obj$I2C_Report_Write_Collision	PTR FTN()void  size(2) Largest target is 0

    MSSP_I2C_Slave_mode@i2c_obj$I2C_InterruptHandler	PTR FTN()void  size(2) Largest target is 0

    MSSP_I2C_Slave_mode@i2c_obj$I2C_Report_Receive_Overflow	PTR FTN()void  size(2) Largest target is 0

    MSSP_I2C_Slave_mode@i2c_obj$I2C_Report_Write_Collision	PTR FTN()void  size(2) Largest target is 0

    port_register	PTR volatile unsigned char [5] size(2) Largest target is 1
		 -> PORTA(BITBIGSFRlllll[1]), PORTB(BITBIGSFRlllll[1]), PORTC(BITBIGSFRlllll[1]), PORTD(BITBIGSFRlllll[1]), 
		 -> PORTE(BITBIGSFRlllll[1]), 

    RB4_InterruptHandler_HIGH	PTR FTN()void  size(2) Largest target is 1
		 -> NULL(), 

    RB4_InterruptHandler_LOW	PTR FTN()void  size(2) Largest target is 1
		 -> NULL(), 

    RB5_InterruptHandler_HIGH	PTR FTN()void  size(2) Largest target is 1
		 -> NULL(), 

    RB5_InterruptHandler_LOW	PTR FTN()void  size(2) Largest target is 1
		 -> NULL(), 

    RB6_InterruptHandler_HIGH	PTR FTN()void  size(2) Largest target is 1
		 -> NULL(), 

    RB6_InterruptHandler_LOW	PTR FTN()void  size(2) Largest target is 1
		 -> NULL(), 

    RB7_InterruptHandler_HIGH	PTR FTN()void  size(2) Largest target is 1
		 -> NULL(), 

    RB7_InterruptHandler_LOW	PTR FTN()void  size(2) Largest target is 1
		 -> NULL(), 

    S1136$CCP1_InterruptHandler	PTR FTN()void  size(2) Largest target is 0

    S1136$CCP2_InterruptHandler	PTR FTN()void  size(2) Largest target is 0

    S1805$EXT_InterruptHandler	PTR FTN()void  size(2) Largest target is 0

    S1921$EXT_InterruptHandler_HIGH	PTR FTN()void  size(2) Largest target is 0

    S1921$EXT_InterruptHandler_LOW	PTR FTN()void  size(2) Largest target is 0

    S2421$SPI_InterruptHandler	PTR FTN()void  size(2) Largest target is 0

    S2574$TIMER0_InterruptHandler	PTR FTN()void  size(2) Largest target is 1
		 -> default_interrupt_handler(), 

    S2739$TIMER1_InterruptHandler	PTR FTN()void  size(2) Largest target is 0

    S2928$TIMER2_InterruptHandler	PTR FTN()void  size(2) Largest target is 0

    S3059$TIMER3_InterruptHandler	PTR FTN()void  size(2) Largest target is 0

    S3258$EUSART_FramingErrorHandler	PTR FTN()void  size(2) Largest target is 0

    S3258$EUSART_OverRunErrorHandler	PTR FTN()void  size(2) Largest target is 0

    S3258$EUSART_RX_InterruptHandler	PTR FTN()void  size(2) Largest target is 0

    S3258$EUSART_TX_InterruptHandler	PTR FTN()void  size(2) Largest target is 0

    S3786$I2C_InterruptHandler	PTR FTN()void  size(2) Largest target is 0

    S3786$I2C_Report_Receive_Overflow	PTR FTN()void  size(2) Largest target is 0

    S3786$I2C_Report_Write_Collision	PTR FTN()void  size(2) Largest target is 0

    S4682$buffer	PTR unsigned char  size(2) Largest target is 0

    S4682$source	PTR const unsigned char  size(2) Largest target is 0

    S720$ADC_InterruptHandler	PTR FTN()void  size(2) Largest target is 0

    select_result_format@_adc$ADC_InterruptHandler	PTR FTN()void  size(2) Largest target is 0

    sp__memset	PTR void  size(2) Largest target is 0

    SPI_DefaultInterruptHandler	PTR FTN()void  size(2) Largest target is 1
		 -> NULL(), 

    SPI_Interrupt_CFG@_spi_cfg$SPI_InterruptHandler	PTR FTN()void  size(2) Largest target is 0

    TIMER0_Init@_timer	PTR const struct . size(1) Largest target is 7
		 -> timer_obj(BANK0[7]), 

    TIMER0_Init@_timer$TIMER0_InterruptHandler	PTR FTN()void  size(2) Largest target is 1
		 -> default_interrupt_handler(), 

    TIMER0_InterruptHandler	PTR FTN()void  size(2) Largest target is 1
		 -> default_interrupt_handler(), NULL(), 

    TIMER0_MODE_Select@_timer	PTR const struct . size(1) Largest target is 7
		 -> timer_obj(BANK0[7]), 

    TIMER0_MODE_Select@_timer$TIMER0_InterruptHandler	PTR FTN()void  size(2) Largest target is 1
		 -> default_interrupt_handler(), 

    TIMER0_Prescaler_config@_timer	PTR const struct . size(1) Largest target is 7
		 -> timer_obj(BANK0[7]), 

    TIMER0_Prescaler_config@_timer$TIMER0_InterruptHandler	PTR FTN()void  size(2) Largest target is 1
		 -> default_interrupt_handler(), 

    TIMER0_REGISTSER_SIZE_config@_timer	PTR const struct . size(1) Largest target is 7
		 -> timer_obj(BANK0[7]), 

    TIMER0_REGISTSER_SIZE_config@_timer$TIMER0_InterruptHandler	PTR FTN()void  size(2) Largest target is 1
		 -> default_interrupt_handler(), 

    TIMER1_Init@_timer$TIMER1_InterruptHandler	PTR FTN()void  size(2) Largest target is 0

    TIMER1_InterruptHandler	PTR FTN()void  size(2) Largest target is 1
		 -> NULL(), 

    TIMER1_MODE_Select@_timer$TIMER1_InterruptHandler	PTR FTN()void  size(2) Largest target is 0

    TIMER2_Init@_timer$TIMER2_InterruptHandler	PTR FTN()void  size(2) Largest target is 0

    TIMER2_InterruptHandler	PTR FTN()void  size(2) Largest target is 1
		 -> NULL(), 

    TIMER3_Init@_timer$TIMER3_InterruptHandler	PTR FTN()void  size(2) Largest target is 0

    TIMER3_InterruptHandler	PTR FTN()void  size(2) Largest target is 1
		 -> NULL(), 

    TIMER3_MODE_Select@_timer$TIMER3_InterruptHandler	PTR FTN()void  size(2) Largest target is 0

    timer_obj$TIMER0_InterruptHandler	PTR FTN()void  size(2) Largest target is 1
		 -> default_interrupt_handler(), 

    tris_register	PTR volatile unsigned char [5] size(2) Largest target is 1
		 -> TRISA(BITBIGSFRlllll[1]), TRISB(ABS[1]), TRISC(ABS[1]), TRISD(ABS[1]), 
		 -> TRISE(ABS[1]), 

    vfprintf$0	PTR struct _IO_FILE size(1) Largest target is 12
		 -> sprintf@f(COMRAM[12]), 

    vfprintf$1	PTR const unsigned char  size(1) Largest target is 3
		 -> STR_1(CODE[3]), STR_2(CODE[3]), STR_3(CODE[3]), 

    vfprintf$2	PTR PTR void  size(1) Largest target is 1
		 -> sprintf@ap(COMRAM[1]), 


Critical Paths under _main in COMRAM

    _lcd_8bit_send_comand->_gpio_pin_write_logic
    _lcd_send_8_bits_enable_signal->_gpio_pin_write_logic
    _lcd_4bit_send_comand->_gpio_pin_write_logic
    _lcd_send_4_bits_enable_signal->_gpio_pin_write_logic
    _lcd_send_4_bits->_gpio_pin_write_logic
    _gpio_pin_intialize->_gpio_pin_direction_intialize
    _gpio_pin_intialize->_gpio_pin_write_logic
    _TIMER0_Init->_TIMER0_Prescaler_config

Critical Paths under _InterruptMangerHigh in COMRAM

    _default_interrupt_handler->_led_turn_on
    _led_turn_on->i2_gpio_pin_write_logic

Critical Paths under _main in BANK0

    _led_intialization->_gpio_pin_intialize
    _ecu_layer_intialize->_lcd_8bit_intialize
    _lcd_8bit_intialize->_lcd_8bit_send_comand
    _lcd_8bit_send_comand->_lcd_send_8_bits_enable_signal
    _lcd_send_8_bits_enable_signal->_gpio_pin_write_logic
    _lcd_4bit_intialize->_lcd_4bit_send_comand
    _lcd_4bit_send_comand->_lcd_send_4_bits
    _lcd_send_4_bits_enable_signal->_gpio_pin_write_logic
    _lcd_send_4_bits->_gpio_pin_write_logic
    _gpio_pin_intialize->_gpio_pin_write_logic

Critical Paths under _InterruptMangerHigh in BANK0

    None.

Critical Paths under _main in BANK1

    None.

Critical Paths under _InterruptMangerHigh in BANK1

    None.

Critical Paths under _main in BANK2

    None.

Critical Paths under _InterruptMangerHigh in BANK2

    None.

Critical Paths under _main in BANK3

    None.

Critical Paths under _InterruptMangerHigh in BANK3

    None.

Critical Paths under _main in BANK4

    None.

Critical Paths under _InterruptMangerHigh in BANK4

    None.

Critical Paths under _main in BANK5

    None.

Critical Paths under _InterruptMangerHigh in BANK5

    None.

Critical Paths under _main in BANK6

    None.

Critical Paths under _InterruptMangerHigh in BANK6

    None.

Critical Paths under _main in BANK7

    None.

Critical Paths under _InterruptMangerHigh in BANK7

    None.

Critical Paths under _main in BANK8

    None.

Critical Paths under _InterruptMangerHigh in BANK8

    None.

Critical Paths under _main in BANK9

    None.

Critical Paths under _InterruptMangerHigh in BANK9

    None.

Critical Paths under _main in BANK10

    None.

Critical Paths under _InterruptMangerHigh in BANK10

    None.

Critical Paths under _main in BANK11

    None.

Critical Paths under _InterruptMangerHigh in BANK11

    None.

Critical Paths under _main in BANK12

    None.

Critical Paths under _InterruptMangerHigh in BANK12

    None.

Critical Paths under _main in BANK13

    None.

Critical Paths under _InterruptMangerHigh in BANK13

    None.

Critical Paths under _main in BANK14

    None.

Critical Paths under _InterruptMangerHigh in BANK14

    None.

Critical Paths under _main in BANK15

    None.

Critical Paths under _InterruptMangerHigh in BANK15

    None.

Call Graph Tables:

 ---------------------------------------------------------------------------------
 (Depth) Function   	        Calls       Base Space   Used Autos Params    Refs
 ---------------------------------------------------------------------------------
 (0) _main                                                 0     0      0   63007
                        _TIMER0_Init
                  _intialization_fun
                  _led_intialization
 ---------------------------------------------------------------------------------
 (1) _led_intialization                                    4     3      1    8466
                                              4 BANK0      4     3      1
                 _gpio_pin_intialize
 ---------------------------------------------------------------------------------
 (1) _intialization_fun                                    1     1      0   53839
                _ecu_layer_intialize
 ---------------------------------------------------------------------------------
 (2) _ecu_layer_intialize                                  1     1      0   53836
                 _lcd_4bit_intialize
                 _lcd_8bit_intialize
 ---------------------------------------------------------------------------------
 (3) _lcd_8bit_intialize                                   4     3      1   23450
                                              9 BANK0      4     3      1
                 _gpio_pin_intialize
               _lcd_8bit_send_comand
 ---------------------------------------------------------------------------------
 (4) _lcd_8bit_send_comand                                 6     4      2   14670
                                              3 BANK0      6     4      2
               _gpio_pin_write_logic
      _lcd_send_8_bits_enable_signal
 ---------------------------------------------------------------------------------
 (5) _lcd_send_8_bits_enable_signal                        2     1      1    6049
                                              1 BANK0      2     1      1
               _gpio_pin_write_logic
 ---------------------------------------------------------------------------------
 (3) _lcd_4bit_intialize                                   4     3      1   30377
                                              7 BANK0      4     3      1
                 _gpio_pin_intialize
               _lcd_4bit_send_comand
 ---------------------------------------------------------------------------------
 (4) _lcd_4bit_send_comand                                 3     1      2   21597
                                              4 BANK0      3     1      2
               _gpio_pin_write_logic
                    _lcd_send_4_bits
      _lcd_send_4_bits_enable_signal
 ---------------------------------------------------------------------------------
 (5) _lcd_send_4_bits_enable_signal                        2     1      1    6229
                                              1 BANK0      2     1      1
               _gpio_pin_write_logic
 ---------------------------------------------------------------------------------
 (5) _lcd_send_4_bits                                      3     1      2    6781
                                              1 BANK0      3     1      2
               _gpio_pin_write_logic
 ---------------------------------------------------------------------------------
 (2) _gpio_pin_intialize                                   3     2      1    8112
                                              1 BANK0      3     2      1
       _gpio_pin_direction_intialize
               _gpio_pin_write_logic
 ---------------------------------------------------------------------------------
 (3) _gpio_pin_write_logic                                 8     6      2    5767
                                             17 COMRAM     7     5      2
                                              0 BANK0      1     1      0
 ---------------------------------------------------------------------------------
 (3) _gpio_pin_direction_intialize                         7     6      1     707
                                             17 COMRAM     7     6      1
 ---------------------------------------------------------------------------------
 (1) _TIMER0_Init                                          4     3      1     702
                                             19 COMRAM     4     3      1
                 _TIMER0_MODE_Select
            _TIMER0_Prescaler_config
       _TIMER0_REGISTSER_SIZE_config
 ---------------------------------------------------------------------------------
 (2) _TIMER0_REGISTSER_SIZE_config                         1     0      1     120
                                             17 COMRAM     1     0      1
 ---------------------------------------------------------------------------------
 (2) _TIMER0_Prescaler_config                              2     1      1     142
                                             17 COMRAM     2     1      1
 ---------------------------------------------------------------------------------
 (2) _TIMER0_MODE_Select                                   1     0      1     164
                                             17 COMRAM     1     0      1
 ---------------------------------------------------------------------------------
 Estimated maximum stack depth 5
 ---------------------------------------------------------------------------------
 (Depth) Function   	        Calls       Base Space   Used Autos Params    Refs
 ---------------------------------------------------------------------------------
 (7) _InterruptMangerHigh                                  6     6      0     753
                                             11 COMRAM     6     6      0
                            _ADC_ISR
                           _CCP1_ISR
                           _CCP2_ISR
                      _EUSART_Rx_ISR
                      _EUSART_Tx_ISR
                           _INT0_ISR
                           _INT1_ISR
                           _INT2_ISR
                    _MSSP_I2C_BC_ISR
                       _MSSP_I2C_ISR
                            _RB4_ISR
                            _RB5_ISR
                            _RB6_ISR
                            _RB7_ISR
                            _SPI_ISR
                         _TIMER0_ISR
                         _TIMER1_ISR
                         _TIMER2_ISR
                         _TIMER3_ISR
 ---------------------------------------------------------------------------------
 (8) _TIMER3_ISR                                           0     0      0       0
 ---------------------------------------------------------------------------------
 (8) _TIMER2_ISR                                           0     0      0       0
 ---------------------------------------------------------------------------------
 (8) _TIMER1_ISR                                           0     0      0       0
 ---------------------------------------------------------------------------------
 (8) _TIMER0_ISR                                           0     0      0     633
                                NULL *
          _default_interrupt_handler *
 ---------------------------------------------------------------------------------
 (9) _default_interrupt_handler                            0     0      0     633
                        _led_turn_on
 ---------------------------------------------------------------------------------
 (10) _led_turn_on                                         4     3      1     633
                                              8 COMRAM     3     2      1
             i2_gpio_pin_write_logic
 ---------------------------------------------------------------------------------
 (11) i2_gpio_pin_write_logic                              8     6      2     327
                                              0 COMRAM     8     6      2
 ---------------------------------------------------------------------------------
 (9) NULL(Fake)                                            0     0      0       0
 ---------------------------------------------------------------------------------
 (8) _SPI_ISR                                              0     0      0       0
 ---------------------------------------------------------------------------------
 (8) _RB7_ISR                                              1     1      0      30
                                              0 COMRAM     1     1      0
 ---------------------------------------------------------------------------------
 (8) _RB6_ISR                                              1     1      0      30
                                              0 COMRAM     1     1      0
 ---------------------------------------------------------------------------------
 (8) _RB5_ISR                                              1     1      0      30
                                              0 COMRAM     1     1      0
 ---------------------------------------------------------------------------------
 (8) _RB4_ISR                                              1     1      0      30
                                              0 COMRAM     1     1      0
 ---------------------------------------------------------------------------------
 (8) _MSSP_I2C_ISR                                         0     0      0       0
 ---------------------------------------------------------------------------------
 (8) _MSSP_I2C_BC_ISR                                      0     0      0       0
 ---------------------------------------------------------------------------------
 (8) _INT2_ISR                                             0     0      0       0
 ---------------------------------------------------------------------------------
 (8) _INT1_ISR                                             0     0      0       0
 ---------------------------------------------------------------------------------
 (8) _INT0_ISR                                             0     0      0       0
 ---------------------------------------------------------------------------------
 (8) _EUSART_Tx_ISR                                        0     0      0       0
 ---------------------------------------------------------------------------------
 (8) _EUSART_Rx_ISR                                        0     0      0       0
 ---------------------------------------------------------------------------------
 (8) _CCP2_ISR                                             0     0      0       0
 ---------------------------------------------------------------------------------
 (8) _CCP1_ISR                                             0     0      0       0
 ---------------------------------------------------------------------------------
 (8) _ADC_ISR                                              0     0      0       0
 ---------------------------------------------------------------------------------
 Estimated maximum stack depth 11
 ---------------------------------------------------------------------------------

 Call Graph Graphs:

 _main (ROOT)
   _TIMER0_Init
     _TIMER0_MODE_Select
     _TIMER0_Prescaler_config
     _TIMER0_REGISTSER_SIZE_config
   _intialization_fun
     _ecu_layer_intialize
       _lcd_4bit_intialize
         _gpio_pin_intialize
           _gpio_pin_direction_intialize
           _gpio_pin_write_logic
         _lcd_4bit_send_comand
           _gpio_pin_write_logic
           _lcd_send_4_bits
             _gpio_pin_write_logic
           _lcd_send_4_bits_enable_signal
             _gpio_pin_write_logic
       _lcd_8bit_intialize
         _gpio_pin_intialize
         _lcd_8bit_send_comand
           _gpio_pin_write_logic
           _lcd_send_8_bits_enable_signal
             _gpio_pin_write_logic
   _led_intialization
     _gpio_pin_intialize

 _InterruptMangerHigh (ROOT)
   _ADC_ISR
   _CCP1_ISR
   _CCP2_ISR
   _EUSART_Rx_ISR
   _EUSART_Tx_ISR
   _INT0_ISR
   _INT1_ISR
   _INT2_ISR
   _MSSP_I2C_BC_ISR
   _MSSP_I2C_ISR
   _RB4_ISR
   _RB5_ISR
   _RB6_ISR
   _RB7_ISR
   _SPI_ISR
   _TIMER0_ISR
     NULL(Fake) *
     _default_interrupt_handler *
       _led_turn_on
         i2_gpio_pin_write_logic
   _TIMER1_ISR
   _TIMER2_ISR
   _TIMER3_ISR

 Address spaces:
Name               Size   Autos  Total    Cost      Usage
BIGRAM             F7F      0       0      48        0.0%
EEDATA             400      0       0       0        0.0%
BITBANK14          100      0       0      32        0.0%
BANK14             100      0       0      33        0.0%
BITBANK13          100      0       0      30        0.0%
BANK13             100      0       0      31        0.0%
BITBANK12          100      0       0      28        0.0%
BANK12             100      0       0      29        0.0%
BITBANK11          100      0       0      26        0.0%
BANK11             100      0       0      27        0.0%
BITBANK10          100      0       0      24        0.0%
BANK10             100      0       0      25        0.0%
BITBANK9           100      0       0      22        0.0%
BANK9              100      0       0      23        0.0%
BITBANK8           100      0       0      20        0.0%
BANK8              100      0       0      21        0.0%
BITBANK7           100      0       0      18        0.0%
BANK7              100      0       0      19        0.0%
BITBANK6           100      0       0      16        0.0%
BANK6              100      0       0      17        0.0%
BITBANK5           100      0       0      14        0.0%
BANK5              100      0       0      15        0.0%
BITBANK4           100      0       0      12        0.0%
BANK4              100      0       0      13        0.0%
BITBANK3           100      0       0      10        0.0%
BANK3              100      0       0      11        0.0%
BITBANK2           100      0       0       8        0.0%
BANK2              100      0       0       9        0.0%
BITBANK1           100      0       0       6        0.0%
BANK1              100      0       0       7        0.0%
BITBANK15           80      0       0      34        0.0%
BANK15              80      0       0      35        0.0%
BITBANK0            80      0       0       4        0.0%
BANK0               80      D      3E       5       48.4%
BITCOMRAM           7E      0       0       0        0.0%
COMRAM              7E     18      6D       1       86.5%
BITBIGSFRhlhlhh     18      0       0      37        0.0%
BITBIGSFRhh          D      0       0      36        0.0%
BITBIGSFRlllhh       6      0       0      44        0.0%
BITBIGSFRhlhlhl      5      0       0      38        0.0%
BITBIGSFRllhllh      4      0       0      41        0.0%
BITBIGSFRllllh       4      0       0      45        0.0%
BITBIGSFRllhllh      4      0       0      42        0.0%
BITBIGSFRlllll       4      0       0      46        0.0%
BITBIGSFRllhllh      1      0       0      40        0.0%
BITBIGSFRhlhlhl      1      0       0      39        0.0%
BITBIGSFRllhlll      1      0       0      43        0.0%
BIGSFR               0      0       0     200        0.0%
BITSFR               0      0       0     200        0.0%
SFR                  0      0       0     200        0.0%
STACK                0      0       0       2        0.0%
NULL                 0      0       0       0        0.0%
ABS                  0      0      AB      47        0.0%
DATA                 0      0      AB       3        0.0%
CODE                 0      0       0       0        0.0%


Microchip Technology PIC18 Macro Assembler V2.46 build 20240104201356 
Symbol Table                                                                                   Wed Oct 30 00:07:35 2024

                                _SSPSTATbits 0FC7                                           l74 1C5E  
                                         l69 1994                             ?_lcd_send_4_bits 00AC  
                      ??_InterruptMangerHigh 0051                                          l203 1E6E  
                                        l125 1AA2                                          l118 188A  
                                        l340 1F66                                          l190 1E9A  
                                        l187 1D80                                          l283 1B8C  
                                        l279 1B34                                          l720 1D26  
                                        l680 1670                                          l699 155E  
                  _RB5_InterruptHandler_HIGH 0029                              __end_of_ADC_ISR 1FCE  
                                        _ret 006D                                          tosl 0FFD  
                                        wreg 0FE8                 __end_of_lcd_8bit_send_comand 1AA4  
                               ?_led_turn_on 004E                         _lcd_4bit_send_comand 1BF8  
                            __end_of_RB4_ISR 1F52                              __end_of_RB5_ISR 1F38  
                            __end_of_RB6_ISR 1F1E                              __end_of_RB7_ISR 1F04  
                                       l1204 1B18                                         l1212 1E0C  
                                       l1205 1B18                                         l1164 19B2  
                                       l1166 1A22                                         l1194 1DD2  
                                       l1522 1EE2                                         l1523 1EE2  
                                       l1528 1FA8                                         l6021 144C  
                                       l6101 1CF6                                         l6023 1462  
                                       l6103 1CFE                                         l6111 1C0A  
                                       l5161 1DB8                                         l7001 1544  
                                       l6033 1530                                         l6025 1482  
                                       l6105 1D24                                         l6113 1C12  
                                       l6201 1972                                         l6121 1A3A  
                                       l5171 1ADA                                         l5163 1DD0  
                                       l5155 1D82                                         l5251 19E8  
                                       l5243 1996                                         l6051 15F2  
                                       l6043 1560                                         l6027 148A  
                                       l6035 155A                                         l6115 1C5C  
                                       l6203 1980                                         l6131 1A54  
                                       l6123 1A42                                         l6211 1798  
                                       l5173 1ADC                                         l5165 1AA4  
                                       l5157 1D9A                                         l5181 1DD4  
                                       l5261 1A1A                                         l5253 19F6  
                                       l5245 19AA                                         l6045 1574  
                                       l6029 14E0                                         l6061 1D28  
                                       l6109 1BF8                                         l6205 1992  
                                       l6133 1A80                                         l6125 1A4E  
                                       l6221 17BC                                         l6213 17A0  
                                       l5175 1AF4                                         l5167 1ABC  
                                       l5159 1D9C                                         l5183 1DEC  
                                       l5263 1A1C                                         l5255 1A08  
                                       l5247 19B4                                         l6055 1642  
                                       l6047 1594                                         l6063 1D28  
                                       l6135 1A84                                         l6119 1A24  
                                       l6231 17FC                                         l6223 17C8  
                                       l6215 17B8                                         l5177 1AFA  
                                       l5169 1AC2                                         l5185 1DF2  
                                       l5265 1A1E                                         l5257 1A0A  
                                       l5249 19CC                                         l6049 159C  
                                       l6057 166E                                         l6065 1D3A  
                                       l6081 1E98                                         l6073 1E70  
                                       l6137 1A94                                         l6241 184C  
                                       l6233 181C                                         l6225 17CC  
                                       l6209 1782                                         l6305 1F52  
                                       l5179 1B12                                         l5187 1E0A  
                                       l5259 1A0C                                         l5267 1A20  
                                       l6067 1D4E                                         l6075 1E70  
                                       l6171 18C2                                         l6091 1E5A  
                                       l6139 1AA0                                         l6243 185A  
                                       l6235 1822                                         l6227 17DC  
                                       l6307 1F52                                         l6069 1D64  
                                       l6077 1E7E                                         l6181 18D6  
                                       l6165 188C                                         l6093 1E6C  
                                       l6085 1E44                                         l6245 1868  
                                       l6237 1830                                         l6229 17EE  
                                       l6309 1F5C                                         l6341 1B2C  
                                       l6079 1E86                                         l6191 192C  
                                       l6183 18E6                                         l6167 18A2  
                                       l6087 1E44                                         l6247 1876  
                                       l6239 183E                                         l6343 1B38  
                                       l6351 1B8A                                         l6097 1CC4  
                                       l6193 193A                                         l6185 18F8  
                                       l6177 18C6                                         l6169 18AA  
                                       l6089 1E52                                         l6249 1888  
                                       l6345 1B6A                                         l6099 1CD6  
                                       l6195 1948                                         l6187 1906  
                                       l6179 18D2                                         l6347 1B6C  
                                       l6339 1B1A                                         l6197 1956  
                                       l6189 1926                                         l6365 1FA4  
                                       l6349 1B7E                                         l6199 1964  
                                       l6367 1FA4                                         l6955 1EC8  
                                       l6957 1ECC                                         l6959 1ED6  
                                       STR_1 1011                                         _LATA 0F89  
                                       _LATB 0F8A                                         _LATC 0F8B  
                                       _LATD 0F8C                                         _LATE 0F8D  
                                       u5200 1594                                         u5201 1590  
                                       u3700 1AF4                                         u3701 1AF0  
                                       u3710 1B12                                         u5230 1658  
                                       u5214 15BA                                         u5150 1462  
                                       u3711 1B0E                                         u5231 1652  
                                       u5215 15B6                                         u5151 145E  
                                       u3720 1DEC                                         u3800 19AA  
                                       u5224 1610                                         u5160 1482  
                                       u5240 1CD6                                         u3721 1DE8  
                                       u3801 19A6                                         u5225 160C  
                                       u5161 147E                                         u5241 1CD2  
                                       u3730 1E0A                                         u5250 1CF6  
                                       u3731 1E06                                         u5251 1CF2  
                                       u3660 1D9A                                         u5236 165A  
                                       u5260 1C0A                                         u5340 18A2  
                                       u3661 1D96                                         u5261 1C06  
                                       u5341 189E                                         u3670 1DD0  
                                       u5190 1574                                         u5174 14A8  
                                       u5350 18E6                                         u5270 1A3A  
                                       u3671 1DCC                                         u5191 1570  
                                       u5175 14A4                                         u5351 18E2  
                                       u5271 1A36                                         u3680 1ABC  
                                       u5184 14FE                                         u5360 1798  
                                       u3681 1AB8                                         u5185 14FA  
                                       u5361 1794                                         u3690 1ADA  
                                       u5290 1A94                                         u5370 17DC  
                                       u3691 1AD6                                         u5291 1A90  
                                       u5371 17D8                                         u5284 1A6E  
                                       u5460 1B2C                                         u5285 1A6A  
                                       u5461 1B28                                         u5475 1B7A  
                                       u5477 1B7E                                         u6617 17E4  
                                       u6627 1804                                         u6637 181E  
                                       u6647 1E54                                         u6657 18EE  
                                       u6667 190E                                         u6677 1928  
                                       u6687 1E80                                         _TMR2 0FCC  
                 __end_of_TIMER0_MODE_Select 1B1A                     _RB4_InterruptHandler_LOW 002B  
                                       _led1 006C                                         _main 1EC8  
                           __end_of_CCP1_ISR 1FCA                             __end_of_CCP2_ISR 1FC6  
                            __end_of_SPI_ISR 1FD0                     _RB7_InterruptHandler_LOW 001F  
                                       fsr2h 0FDA                                         indf2 0FDF  
                                       fsr1l 0FE1                                         fsr2l 0FD9  
                                       btemp 006E                            _led_intialization 1B1A  
                                       prodh 0FF4                                         prodl 0FF3  
                                       start 000E                           ?_led_intialization 00AF  
                               ___param_bank 0000             lcd_send_4_bits_enable_signal@lcd 00AC  
           lcd_send_4_bits_enable_signal@ret 00AD                         _gpio_pin_write_logic 144C  
                                ?_TIMER0_ISR 0046                                  ?_TIMER1_ISR 0046  
          __end_of_default_interrupt_handler 1F9C                                  ?_TIMER2_ISR 0046  
                                ?_TIMER3_ISR 0046                        lcd_4bit_intialize@lcd 00B2  
                      lcd_4bit_intialize@ret 00B5                             __end_of_INT0_ISR 1FBE  
                           __end_of_INT1_ISR 1FBA                             __end_of_INT2_ISR 1FB6  
                    _TIMER0_Prescaler_config 1D82                          ??_led_intialization 00B0  
                                      ?_main 0046                                        _EEADR 0FA9  
                                      i2l290 1BF6                                        i2l286 1BA2  
                                      i2l551 1FC4                                        i2l465 1FCC  
                                      i2l546 1FC8                                        i2l802 1FB8  
                                      i2l807 1FB4                                        i2l840 1F1C  
                                      i2l818 1F50                                        i2l851 1F02  
                                      i2l829 1F36                                        i2l699 1780  
                                      i2l797 1FBC                                        _RCREG 0FAE  
                        relay_turn_off@F3066 003F                                        _TMR0H 0FD7  
                          TIMER0_Init@_timer 0059                                        _TMR1H 0FCF  
                                      _TMR0L 0FD6                                        _TMR1L 0FCE  
                                      _TMR3H 0FB3                                        _TMR3L 0FB2  
                                      _SPBRG 0FAF                                        _PORTA 0F80  
                                      _PORTB 0F81                                        _PORTC 0F82  
                                      _PORTD 0F83                                        _PORTE 0F84  
            ??_lcd_send_4_bits_enable_signal 005E                                _EUSART_Rx_ISR 1FD0  
                                      _TRISA 0F92                                        _TRISB 0F93  
                                      _TRISC 0F94                                        _TRISD 0F95  
                                      _TRISE 0F96                                _EUSART_Tx_ISR 1FBE  
                                      _TXREG 0FAD                        ?_lcd_4bit_send_comand 00AF  
                                      _lcd_1 00A5                                        _lcd_2 0094  
                                      pclath 0FFA                                        pclatu 0FFB  
                                      tablat 0FF5                    __end_of_led_intialization 1B8E  
                                      ttemp5 006F                                        ttemp6 0072  
                                      ttemp7 0076                                        status 0FD8  
                                      wtemp8 006F                      lcd_4bit_send_comand@lcd 00AF  
                    lcd_4bit_send_comand@ret 00B1                              __initialization 1C60  
                               __end_of_main 1EEA                    i2gpio_pin_write_logic@ret 004D  
                      ?_gpio_pin_write_logic 0057                  i2gpio_pin_write_logic@logic 0047  
                                  ??_ADC_ISR 0046                                       ??_main 005E  
                              _green_counter 003D                                 ?_TIMER0_Init 0059  
                              __activetblptr 0003                               ?_EUSART_Rx_ISR 0046  
                             ?_EUSART_Tx_ISR 0046                             led_turn_on@F3067 0044  
                                  ??_RB4_ISR 0046                                    ??_RB5_ISR 0046  
                                  ??_RB6_ISR 0046                                    ??_RB7_ISR 0046  
                                  ??_SPI_ISR 0046                                       _ADRESH 0FC4  
                                     _EEADRH 0FAA                                       _ADRESL 0FC3  
                                     _EEDATA 0FA8                                       _CCPR1H 0FBF  
                                     _CCPR2H 0FBC                                       _CCPR1L 0FBE  
                                     _CCPR2L 0FBB                                       _EECON2 0FA7  
                                     i2l1050 1090                                       i2l1140 1FCE  
                                     i2l1060 11E4                                       i2l1052 10D4  
                                     i2l1070 12F0                                       i2l1062 1228  
                                     i2l1054 1118                                       i2l1046 1050  
                                     i2l1080 1390                                       i2l1072 1310  
                                     i2l1064 126C                                       i2l1056 115C  
                                     i2l1048 1070                                       i2l1082 13B0  
                                     i2l1074 1330                                       i2l1066 12B0  
                                     i2l1058 11A0                                       i2l1307 1FA2  
                                     i2l1091 1430                                       i2l1084 13D0  
                                     i2l1076 1350                                       i2l1068 12D0  
                                     i2l1086 13F0                                       i2l1078 1370  
                                     i2l1256 1F8E                                       i2l1088 1410  
                                     i2l1513 1F9A                                       i2l1187 1E42  
                                     i2l1355 1F82                                       i2l1485 1FC0  
                                     i2l1494 1FD0                                       i2l1671 1FAC  
                                     i2l2803 1FC6                                       i2l1676 1FB0  
                                     i2l2809 1FC2                                       i2l2833 1FB6  
                                     i2l2827 1FBA                                       i2l7003 1768  
                                     i2l2853 1F50                                       i2l2845 1F3A  
                                     i2l2861 1F22                                       i2l2839 1FB2  
                                     i2l2847 1F3C                                       i2l6151 1704  
                                     i2l6143 1672                                       i2l6311 1F90  
                                     i2l2943 1F84                                       i2l2951 1F9C  
                                     i2l2881 1F1C                                       i2l2873 1F06  
                                     i2l6145 1686                                       i2l6313 1F92  
                                     i2l2945 1F86                                       i2l2963 1FBE  
                                     i2l2867 1F36                                       i2l2859 1F20  
                                     i2l2875 1F08                                       i2l6155 1754  
                                     i2l6147 16A6                                       i2l2947 1F8A  
                                     i2l2955 1F78                                       i2l2981 1FAA  
                                     i2l6149 16AE                                       i2l6157 177E  
                                     i2l6261 1BDA                                       i2l6253 1B8E  
                                     i2l2957 1F7A                                       i2l2799 1FCA  
                                     i2l2895 1F02                                       i2l2887 1EEC  
                                     i2l6263 1BEA                                       i2l6255 1B9E  
                                     i2l2959 1F7E                                       i2l2969 1FD0  
                                     i2l2889 1EEE                                       i2l6257 1BA6  
                                     i2l6361 1E18                                       i2l2987 1FAE  
                                     i2l6259 1BD8                                       i2l6363 1E2A  
                                     i2l6355 1E0E                                       i2l6357 1E10  
                                     i2l6359 1E14                                       i2l6901 1296  
                                     i2l6821 106C                                       i2l6813 1030  
                                     i2l6911 12DE                                       i2l6903 12A6  
                                     i2l6831 10BA                                       i2l6823 107E  
                                     i2l6815 103E                                       i2l6921 132C  
                                     i2l6913 12EC                                       i2l6905 12AA  
                                     i2l6841 10FE                                       i2l6833 10CA  
                                     i2l6825 108C                                       i2l6817 104C  
                                     i2l6931 137E                                       i2l6923 133E  
                                     i2l6915 12FE                                       i2l6907 12BE  
                                     i2l6851 1142                                       i2l6843 110E  
                                     i2l6835 10CE                                       i2l6827 109E  
                                     i2l6819 105E                                       i2l6941 13CC  
                                     i2l6933 138C                                       i2l6925 134C  
                                     i2l6917 130C                                       i2l6909 12CC  
                                     i2l6861 1186                                       i2l6853 1152  
                                     i2l6845 1112                                       i2l6837 10E2  
                                     i2l6829 10AC                                       i2l6951 141E  
                                     i2l6943 13DE                                       i2l6935 139E  
                                     i2l6927 135E                                       i2l6919 131E  
                                     i2l6871 11CA                                       i2l6863 1196  
                                     i2l6855 1156                                       i2l6847 1126  
                                     i2l6839 10F0                                       i2l6953 142C  
                                     i2l6945 13EC                                       i2l6937 13AC  
                                     i2l6929 136C                                       i2l6881 120E  
                                     i2l6873 11DA                                       i2l6865 119A  
                                     i2l6857 116A                                       i2l6849 1134  
                                     i2l6947 13FE                                       i2l6939 13BE  
                                     i2l6891 1252                                       i2l6883 121E  
                                     i2l6875 11DE                                       i2l6867 11AE  
                                     i2l6859 1178                                       i2l6949 140C  
                                     i2l6893 1262                                       i2l6885 1222  
                                     i2l6877 11F2                                       i2l6869 11BC  
                                     i2l6895 1266                                       i2l6887 1236  
                                     i2l6879 1200                                       i2l6897 127A  
                                     i2l6889 1244                                       i2l6899 1288  
                    _TIMER0_InterruptHandler 001B                                       _SPBRGH 0FB0  
                                     _SSPADD 0FC8                                       _SSPBUF 0FC9  
                 _EUSART_RX_InterruptHandler 000B                                _tris_register 008A  
                       _lcd_8bit_send_comand 1A24                    ??_TIMER0_Prescaler_config 0058  
                                     clear_0 1CB4                                       isa$std 0001  
_I2C_Report_Receive_Overflow_InterruptHandle 0001                                    ?_CCP1_ISR 0046  
                               __pdataCOMRAM 005E                                    ?_CCP2_ISR 0046  
                     ??_lcd_4bit_send_comand 005E                                 __mediumconst 0000  
                                     tblptrh 0FF7                                       tblptrl 0FF6  
                                     tblptru 0FF8                                   __accesstop 0080  
                    __end_of__initialization 1CBA                                    ?_INT0_ISR 0046  
                                  ?_INT1_ISR 0046                                    ?_INT2_ISR 0046  
                              ___rparam_used 0001                        ?_lcd_8bit_send_comand 00AE  
                     ??_gpio_pin_write_logic 0059                               __pcstackCOMRAM 0046  
                               __pidataBANK0 1E9C                              ??_EUSART_Rx_ISR 0046  
                            ??_EUSART_Tx_ISR 0046                            RB5_ISR@RB5_source 0046  
                         _lcd_8bit_intialize 1782                                   ??_CCP1_ISR 0046  
                                 ??_CCP2_ISR 0046         _EUSART_OverRunError_InterruptHandler 0007  
                        ?_lcd_8bit_intialize 00B4                                   __pbssBANK0 00B8  
      __end_of_lcd_send_8_bits_enable_signal 1E70                _lcd_send_8_bits_enable_signal 1E44  
                      _INT0_InterruptHandler 0033                                   ??_INT0_ISR 0046  
                                 ??_INT1_ISR 0046                                   ??_INT2_ISR 0046  
                                 __pnvCOMRAM 006D                  lcd_8bit_send_comand@command 00AF  
                _SPI_DefaultInterruptHandler 001D                         ??_lcd_8bit_intialize 00B5  
                __end_of_InterruptMangerHigh 144C                    conv_short_to_string@F3212 00B8  
                          led_turn_off@F3072 0043                                 ??_TIMER0_ISR 0051  
                               ??_TIMER1_ISR 0046                                 ??_TIMER2_ISR 0046  
                               ??_TIMER3_ISR 0046                           _TIMER0_MODE_Select 1AA4  
                                    _ADC_ISR 1FCA                              led_toggle@F3077 0042  
                    _TIMER1_InterruptHandler 0017                          ?_TIMER0_MODE_Select 0057  
                                    _RB4_ISR 1F38                                      _RB5_ISR 1F1E  
                                    _RB6_ISR 1F04                                      _RB7_ISR 1EEA  
                  _RB6_InterruptHandler_HIGH 0025                                ?_MSSP_I2C_ISR 0046  
                                    i2u52_40 1F4C                                      i2u52_41 1F48  
                                    i2u53_40 1F32                                      i2u53_41 1F2E  
                                    i2u54_40 1F18                                      i2u54_41 1F14  
                                    i2u55_40 1EFE                                      i2u55_41 1EFA  
                          RB7_ISR@RB7_source 0046                                      _SPI_ISR 1FCE  
            CCP_Compare_Mode_Set_Value@F3120 0035                           __end_of_TIMER0_ISR 1E44  
                         __end_of_TIMER1_ISR 1F90                           __end_of_TIMER2_ISR 1FA4  
                         __end_of_TIMER3_ISR 1F84                     _RB6_InterruptHandler_LOW 0023  
                       ??_TIMER0_MODE_Select 0058                       ??_lcd_8bit_send_comand 00B0  
                          ??_MSSP_I2C_BC_ISR 0046                         _ADC_InterruptHandler 003B  
                                    __Hparam 0000                                      __Lparam 0000  
                        _ecu_layer_intialize 1F52                                   _keybad_val 1001  
                               __psmallconst 1000                   __end_of_gpio_pin_intialize 1D28  
                                    __pcinit 1C60                   ?_default_interrupt_handler 0046  
                                    __ramtop 1000                                      __ptext0 1EC8  
                                    __ptext1 1B1A                                      __ptext2 1FA4  
                                    __ptext3 1F52                                      __ptext4 1782  
                                    __ptext5 1A24                                      __ptext6 1E44  
                                    __ptext7 188C                                      __ptext8 1BF8  
                                    __ptext9 1E70                                    _T0CONbits 0FD5  
                                  _T1CONbits 0FCD                               ??_MSSP_I2C_ISR 0046  
                                  _T2CONbits 0FCA                                    _T3CONbits 0FB1  
                       ?_ecu_layer_intialize 0046                     ??i2_gpio_pin_write_logic 0048  
                             __pintcode_body 1016                         end_of_initialization 1CBA  
         TIMER0_REGISTSER_SIZE_config@_timer 0057                                      int_func 1016  
                 __end_of_lcd_4bit_intialize 1996                        gpio_pin_intialize@ret 00AE  
             ?_lcd_send_8_bits_enable_signal 00AC                                    _RCSTAbits 0FAB  
                                    postdec1 0FE5                                      postdec2 0FDD  
                                    postinc0 0FEE                                      postinc2 0FDE  
                       led_intialization@LED 00AF                        _INT1_InterruptHandler 0031  
                                  _PORTBbits 0F81                         led_intialization@ret 00B1  
                      ??_ecu_layer_intialize 005E         __end_of_gpio_pin_direction_intialize 1672  
               _gpio_pin_direction_intialize 1560                                    _TRISCbits 0F94  
                    _TIMER2_InterruptHandler 0013                            ??_lcd_send_4_bits 005E  
                                _CCP1CONbits 0FBD                TIMER0_Prescaler_config@_timer 0057  
                                _CCP2CONbits 0FBA                                    _TXSTAbits 0FAC  
                         relay_turn_on@F3061 0040         _EUSART_FramingError_InterruptHandler 0009  
                                _BAUDCONbits 0FB8                                __pidataCOMRAM 1F68  
                             _timer0_preload 0019                               _timer1_preload 0015  
                             _timer2_preload 003E                          start_initialization 1C60  
                              ??_led_turn_on 004F                               _timer3_preload 000F  
              ?_gpio_pin_direction_intialize 0057                                 _lat_register 005E  
                   ?_TIMER0_Prescaler_config 0057                         __end_of_MSSP_I2C_ISR 1FAE  
                                __pdataBANK0 0080                                     ?_ADC_ISR 0046  
                      __end_of_EUSART_Rx_ISR 1FD2                        __end_of_EUSART_Tx_ISR 1FC2  
                                   ?_RB4_ISR 0046                                     ?_RB5_ISR 0046  
                                   ?_RB6_ISR 0046                                     ?_RB7_ISR 0046  
                                __pbssCOMRAM 0001  _I2C_Report_Write_Collision_InterruptHandler 0005  
                              __pcstackBANK0 00AB                              _MSSP_I2C_BC_ISR 1FAE  
                lcd_4bit_send_comand@command 00B0                                     ?_SPI_ISR 0046  
                        __end_of_led_turn_on 1BF8        __end_of_lcd_send_4_bits_enable_signal 1E9C  
              _lcd_send_4_bits_enable_signal 1E70                        _INT2_InterruptHandler 002F  
             gpio_pin_write_logic@pin_config 0057             i2gpio_pin_write_logic@pin_config 0046  
            gpio_pin_direction_intialize@ret 005D                                    __pintcode 0008  
                     i2_gpio_pin_write_logic 1672                    gpio_pin_write_logic@logic 0058  
                ??_default_interrupt_handler 0051                      _TIMER3_InterruptHandler 0011  
                              ??_TIMER0_Init 005A         lcd_8bit_intialize@l_data_pin_counter 00B6  
       lcd_4bit_intialize@l_data_pin_counter 00B4                                  __smallconst 1000  
                  _RB4_InterruptHandler_HIGH 002D                                     _CCP1_ISR 1FC6  
                                   _CCP2_ISR 1FC2                    _RB7_InterruptHandler_HIGH 0021  
                         _gpio_pin_intialize 1CC4              __end_of_TIMER0_Prescaler_config 1DD4  
                                   _RB4_FLAG 006B               ??_gpio_pin_direction_intialize 0058  
                                   _RB5_FLAG 006A                                     _RB6_FLAG 0069  
                                   _RB7_FLAG 0068                     _RB5_InterruptHandler_LOW 0027  
                                   _INT0_ISR 1FBA                                     _INT1_ISR 1FB6  
                                   _INT2_ISR 1FB2                          ?_gpio_pin_intialize 00AC  
                                   _PIE1bits 0F9D                                     _PIE2bits 0FA0  
                       _I2C_InterruptHandler 0003                 lcd_send_4_bits@_data_command 00AD  
                          _intialization_fun 1FA4         __end_of_TIMER0_REGISTSER_SIZE_config 1E0E  
               _TIMER0_REGISTSER_SIZE_config 1DD4                                     i2u600_40 104C  
                                   i2u600_41 1048                                     i2u601_40 105E  
                                   i2u601_41 105A                                     _PIR1bits 0F9E  
                                   i2u530_40 1686                                     i2u610_40 10F0  
                                   i2u602_40 106C                                     i2u530_41 1682  
                                   i2u610_41 10EC                                     i2u602_41 1068  
                                   i2u531_40 16A6                                     i2u611_40 10FE  
                                   i2u603_40 107E                                     i2u531_41 16A2  
                                   i2u611_41 10FA                                     i2u603_41 107A  
                                   _PIR2bits 0FA1                                     i2u620_40 1196  
                                   i2u612_40 110E                                     i2u604_40 108C  
                                   i2u620_41 1192                                     i2u612_41 110A  
                                   i2u604_41 1088                                     i2u532_44 16CC  
                                   i2u532_45 16C8                                     i2u621_40 11AE  
                                   i2u613_40 1126                                     i2u605_40 109E  
                                   i2u621_41 11AA                                     i2u613_41 1122  
                                   i2u605_41 109A                                     i2u533_44 1722  
                                   i2u533_45 171E                                     i2u630_40 1244  
                                   i2u622_40 11BC                                     i2u614_40 1134  
                                   i2u606_40 10AC                                     i2u630_41 1240  
                                   i2u622_41 11B8                                     i2u614_41 1130  
                                   i2u606_41 10A8                           led_turn_on@pin_obj 0050  
                                   i2u631_40 1252                                     i2u623_40 11CA  
                                   i2u615_40 1142                                     i2u607_40 10BA  
                                   i2u631_41 124E                                     i2u623_41 11C6  
                                   i2u615_41 113E                                     i2u607_41 10B6  
                                   i2u640_40 12EC                                     i2u632_40 1262  
                                   i2u624_40 11DA                                     i2u616_40 1152  
                                   i2u608_40 10CA                                     i2u640_41 12E8  
                                   i2u632_41 125E                                     i2u624_41 11D6  
                                   i2u616_41 114E                                     i2u608_41 10C6  
                                   i2u641_40 12FE                                     i2u633_40 127A  
                                   i2u625_40 11F2                                     i2u617_40 116A  
                                   i2u609_40 10E2                                     i2u641_41 12FA  
                                   i2u633_41 1276                                     i2u625_41 11EE  
                                   i2u617_41 1166                                     i2u609_41 10DE  
                                   i2u538_40 1B9E                                     i2u650_40 138C  
                                   i2u642_40 130C                                     i2u634_40 1288  
                                   i2u626_40 1200                                     i2u618_40 1178  
                                   i2u538_41 1B9A                                     i2u650_41 1388  
                                   i2u642_41 1308                                     i2u634_41 1284  
                                   i2u626_41 11FC                                     i2u618_41 1174  
                                   i2u651_40 139E                                     i2u643_40 131E  
                                   i2u635_40 1296                                     i2u627_40 120E  
                                   i2u619_40 1186                                     i2u651_41 139A  
                                   i2u643_41 131A                                     i2u635_41 1292  
                                   i2u627_41 120A                                     i2u619_41 1182  
                                   i2u539_45 1BE8                                     i2u539_47 1BEA  
                                   i2u548_40 1E2A                                     i2u660_40 142C  
                                   i2u652_40 13AC                                     i2u644_40 132C  
                                   i2u636_40 12A6                                     i2u628_40 121E  
                                   i2u548_41 1E26                                     i2u660_41 1428  
                                   i2u652_41 13A8                                     i2u644_41 1328  
                                   i2u636_41 12A2                                     i2u628_41 121A  
                                   i2u653_40 13BE                                     i2u645_40 133E  
                                   i2u637_40 12BE                                     i2u629_40 1236  
                                   i2u653_41 13BA                                     i2u645_41 133A  
                                   i2u637_41 12BA                                     i2u629_41 1232  
                                   i2u549_48 1E30                                     i2u654_40 13CC  
                                   i2u646_40 134C                                     i2u638_40 12CC  
                                   i2u549_49 1E42                                     i2u654_41 13C8  
                                   i2u646_41 1348                                     i2u638_41 12C8  
                                   i2u655_40 13DE                                     i2u647_40 135E  
                                   i2u639_40 12DE                                     i2u655_41 13DA  
                                   i2u647_41 135A                                     i2u639_41 12DA  
                                   i2u656_40 13EC                                     i2u648_40 136C  
                                   i2u656_41 13E8                                     i2u648_41 1368  
                                   i2u657_40 13FE                                     i2u649_40 137E  
                                   i2u657_41 13FA                                     i2u649_41 137A  
                                   i2u658_40 140C                                     i2u658_41 1408  
                                   i2u659_40 141E                                     i2u659_41 141A  
                                   i2u599_40 103E                                     i2u599_41 103A  
                         ?_intialization_fun 0046                            RB4_ISR@RB4_source 0046  
                                  _timer_obj 009E                        lcd_8bit_intialize@lcd 00B4  
                         _lcd_4bit_intialize 188C                        lcd_8bit_intialize@ret 00B7  
                                 _ADCON0bits 0FC2                                   _ADCON1bits 0FC1  
                                 _ADCON2bits 0FC0                          ??_intialization_fun 005E  
                    __end_of_MSSP_I2C_BC_ISR 1FB2                         ??_gpio_pin_intialize 00AD  
           lcd_send_8_bits_enable_signal@lcd 00AC             lcd_send_8_bits_enable_signal@ret 00AD  
            ??_lcd_send_8_bits_enable_signal 005E                          ?_lcd_4bit_intialize 00B2  
                             TIMER0_Init@ret 005C                              _lcd_send_4_bits 1D28  
                                _led_turn_on 1B8E                          __end_of_TIMER0_Init 1A24  
                    gpio_pin_write_logic@ret 00AB                                  _INTCON2bits 0FF1  
                                _INTCON3bits 0FF0                                    copy_data0 1C74  
                                  copy_data1 1C94                     led_intialization@pin_obj 00B2  
                  _default_interrupt_handler 1F90                    __end_of_intialization_fun 1FAA  
                                 _EECON1bits 0FA6                               led_turn_on@LED 004E  
                       ??_lcd_4bit_intialize 00B3                                     __Hrparam 0000  
             ?_lcd_send_4_bits_enable_signal 00AC                      lcd_8bit_send_comand@lcd 00AE  
                    lcd_8bit_send_comand@ret 00B2                                     __Lrparam 0000  
              ?_TIMER0_REGISTSER_SIZE_config 0057                        _CCP1_InterruptHandler 0039  
                __end_of_ecu_layer_intialize 1F68                            RB6_ISR@RB6_source 0046  
                               _MSSP_I2C_ISR 1FAA                                     __ptext10 1D28  
                                   __ptext11 1CC4                                     __ptext20 1F9C  
                                   __ptext12 144C                                     __ptext21 1F84  
                                   __ptext13 1560                                     __ptext30 1F38  
                                   __ptext22 1E0E                                     __ptext14 1996  
                                   __ptext31 1FAA                                     __ptext23 1F90  
                                   __ptext15 1DD4                                     __ptext40 1FCA  
                                   __ptext32 1FAE                                     __ptext24 1B8E  
                                   __ptext16 1D82                                     __ptext33 1FB2  
                                   __ptext25 1672                                     __ptext17 1AA4  
                                   __ptext34 1FB6                                     __ptext26 1FCE  
                                   __ptext35 1FBA                                     __ptext27 1EEA  
                                   __ptext19 1F78                                     __ptext36 1FBE  
                                   __ptext28 1F04                                     __ptext37 1FD0  
                                   __ptext29 1F1E                                     __ptext38 1FC2  
                                   __ptext39 1FC6                           __end_of_keybad_val 1011  
                         lcd_send_4_bits@lcd 00AC                           lcd_send_4_bits@ret 00AE  
                 _EUSART_TX_InterruptHandler 000D                 gpio_pin_intialize@pin_config 00AC  
               __end_of_lcd_4bit_send_comand 1C60                                     isa$xinst 0000  
                                   int$flags 006E                      __end_of_lcd_send_4_bits 1D82  
                                _TIMER0_Init 1996                             ?_MSSP_I2C_BC_ISR 0046  
                                 _INTCONbits 0FF2                 __end_of_gpio_pin_write_logic 1560  
                                   intlevel2 0000                       led_intialization@F3062 0045  
                        _InterruptMangerHigh 0008                     relay_intialization@F3056 0041  
                    ?i2_gpio_pin_write_logic 0046       gpio_pin_direction_intialize@pin_config 0057  
                                 _TIMER0_ISR 1E0E                                   _TIMER1_ISR 1F84  
                                 _TIMER2_ISR 1F9C                                   _TIMER3_ISR 1F78  
             ??_TIMER0_REGISTSER_SIZE_config 0058            lcd_8bit_send_comand@l_pin_counter 00B3  
                       ?_InterruptMangerHigh 0046                                  _SSPCON1bits 0FC6  
                                _SSPCON2bits 0FC5                     TIMER0_MODE_Select@_timer 0057  
                      _CCP2_InterruptHandler 0037                                _port_register 0080  
             __end_ofi2_gpio_pin_write_logic 1782                   __end_of_lcd_8bit_intialize 188C  
